
ctarget:     file format elf64-x86-64


Disassembly of section .init:

0000000000400c48 <_init>:
  400c48:	48 83 ec 08          	sub    $0x8,%rsp
  400c4c:	48 8b 05 a5 43 20 00 	mov    0x2043a5(%rip),%rax        # 604ff8 <__gmon_start__>
  400c53:	48 85 c0             	test   %rax,%rax
  400c56:	74 05                	je     400c5d <_init+0x15>
  400c58:	e8 43 02 00 00       	callq  400ea0 <.plt.got>
  400c5d:	48 83 c4 08          	add    $0x8,%rsp
  400c61:	c3                   	retq   

Disassembly of section .plt:

0000000000400c70 <.plt>:
  400c70:	ff 35 92 43 20 00    	pushq  0x204392(%rip)        # 605008 <_GLOBAL_OFFSET_TABLE_+0x8>
  400c76:	ff 25 94 43 20 00    	jmpq   *0x204394(%rip)        # 605010 <_GLOBAL_OFFSET_TABLE_+0x10>
  400c7c:	0f 1f 40 00          	nopl   0x0(%rax)

0000000000400c80 <strcasecmp@plt>:
  400c80:	ff 25 92 43 20 00    	jmpq   *0x204392(%rip)        # 605018 <strcasecmp@GLIBC_2.2.5>
  400c86:	68 00 00 00 00       	pushq  $0x0
  400c8b:	e9 e0 ff ff ff       	jmpq   400c70 <.plt>

0000000000400c90 <__errno_location@plt>:
  400c90:	ff 25 8a 43 20 00    	jmpq   *0x20438a(%rip)        # 605020 <__errno_location@GLIBC_2.2.5>
  400c96:	68 01 00 00 00       	pushq  $0x1
  400c9b:	e9 d0 ff ff ff       	jmpq   400c70 <.plt>

0000000000400ca0 <srandom@plt>:
  400ca0:	ff 25 82 43 20 00    	jmpq   *0x204382(%rip)        # 605028 <srandom@GLIBC_2.2.5>
  400ca6:	68 02 00 00 00       	pushq  $0x2
  400cab:	e9 c0 ff ff ff       	jmpq   400c70 <.plt>

0000000000400cb0 <strncmp@plt>:
  400cb0:	ff 25 7a 43 20 00    	jmpq   *0x20437a(%rip)        # 605030 <strncmp@GLIBC_2.2.5>
  400cb6:	68 03 00 00 00       	pushq  $0x3
  400cbb:	e9 b0 ff ff ff       	jmpq   400c70 <.plt>

0000000000400cc0 <strcpy@plt>:
  400cc0:	ff 25 72 43 20 00    	jmpq   *0x204372(%rip)        # 605038 <strcpy@GLIBC_2.2.5>
  400cc6:	68 04 00 00 00       	pushq  $0x4
  400ccb:	e9 a0 ff ff ff       	jmpq   400c70 <.plt>

0000000000400cd0 <puts@plt>:
  400cd0:	ff 25 6a 43 20 00    	jmpq   *0x20436a(%rip)        # 605040 <puts@GLIBC_2.2.5>
  400cd6:	68 05 00 00 00       	pushq  $0x5
  400cdb:	e9 90 ff ff ff       	jmpq   400c70 <.plt>

0000000000400ce0 <write@plt>:
  400ce0:	ff 25 62 43 20 00    	jmpq   *0x204362(%rip)        # 605048 <write@GLIBC_2.2.5>
  400ce6:	68 06 00 00 00       	pushq  $0x6
  400ceb:	e9 80 ff ff ff       	jmpq   400c70 <.plt>

0000000000400cf0 <__stack_chk_fail@plt>:
  400cf0:	ff 25 5a 43 20 00    	jmpq   *0x20435a(%rip)        # 605050 <__stack_chk_fail@GLIBC_2.4>
  400cf6:	68 07 00 00 00       	pushq  $0x7
  400cfb:	e9 70 ff ff ff       	jmpq   400c70 <.plt>

0000000000400d00 <mmap@plt>:
  400d00:	ff 25 52 43 20 00    	jmpq   *0x204352(%rip)        # 605058 <mmap@GLIBC_2.2.5>
  400d06:	68 08 00 00 00       	pushq  $0x8
  400d0b:	e9 60 ff ff ff       	jmpq   400c70 <.plt>

0000000000400d10 <memset@plt>:
  400d10:	ff 25 4a 43 20 00    	jmpq   *0x20434a(%rip)        # 605060 <memset@GLIBC_2.2.5>
  400d16:	68 09 00 00 00       	pushq  $0x9
  400d1b:	e9 50 ff ff ff       	jmpq   400c70 <.plt>

0000000000400d20 <alarm@plt>:
  400d20:	ff 25 42 43 20 00    	jmpq   *0x204342(%rip)        # 605068 <alarm@GLIBC_2.2.5>
  400d26:	68 0a 00 00 00       	pushq  $0xa
  400d2b:	e9 40 ff ff ff       	jmpq   400c70 <.plt>

0000000000400d30 <close@plt>:
  400d30:	ff 25 3a 43 20 00    	jmpq   *0x20433a(%rip)        # 605070 <close@GLIBC_2.2.5>
  400d36:	68 0b 00 00 00       	pushq  $0xb
  400d3b:	e9 30 ff ff ff       	jmpq   400c70 <.plt>

0000000000400d40 <read@plt>:
  400d40:	ff 25 32 43 20 00    	jmpq   *0x204332(%rip)        # 605078 <read@GLIBC_2.2.5>
  400d46:	68 0c 00 00 00       	pushq  $0xc
  400d4b:	e9 20 ff ff ff       	jmpq   400c70 <.plt>

0000000000400d50 <__libc_start_main@plt>:
  400d50:	ff 25 2a 43 20 00    	jmpq   *0x20432a(%rip)        # 605080 <__libc_start_main@GLIBC_2.2.5>
  400d56:	68 0d 00 00 00       	pushq  $0xd
  400d5b:	e9 10 ff ff ff       	jmpq   400c70 <.plt>

0000000000400d60 <signal@plt>:
  400d60:	ff 25 22 43 20 00    	jmpq   *0x204322(%rip)        # 605088 <signal@GLIBC_2.2.5>
  400d66:	68 0e 00 00 00       	pushq  $0xe
  400d6b:	e9 00 ff ff ff       	jmpq   400c70 <.plt>

0000000000400d70 <gethostbyname@plt>:
  400d70:	ff 25 1a 43 20 00    	jmpq   *0x20431a(%rip)        # 605090 <gethostbyname@GLIBC_2.2.5>
  400d76:	68 0f 00 00 00       	pushq  $0xf
  400d7b:	e9 f0 fe ff ff       	jmpq   400c70 <.plt>

0000000000400d80 <__memmove_chk@plt>:
  400d80:	ff 25 12 43 20 00    	jmpq   *0x204312(%rip)        # 605098 <__memmove_chk@GLIBC_2.3.4>
  400d86:	68 10 00 00 00       	pushq  $0x10
  400d8b:	e9 e0 fe ff ff       	jmpq   400c70 <.plt>

0000000000400d90 <strtol@plt>:
  400d90:	ff 25 0a 43 20 00    	jmpq   *0x20430a(%rip)        # 6050a0 <strtol@GLIBC_2.2.5>
  400d96:	68 11 00 00 00       	pushq  $0x11
  400d9b:	e9 d0 fe ff ff       	jmpq   400c70 <.plt>

0000000000400da0 <memcpy@plt>:
  400da0:	ff 25 02 43 20 00    	jmpq   *0x204302(%rip)        # 6050a8 <memcpy@GLIBC_2.14>
  400da6:	68 12 00 00 00       	pushq  $0x12
  400dab:	e9 c0 fe ff ff       	jmpq   400c70 <.plt>

0000000000400db0 <time@plt>:
  400db0:	ff 25 fa 42 20 00    	jmpq   *0x2042fa(%rip)        # 6050b0 <time@GLIBC_2.2.5>
  400db6:	68 13 00 00 00       	pushq  $0x13
  400dbb:	e9 b0 fe ff ff       	jmpq   400c70 <.plt>

0000000000400dc0 <random@plt>:
  400dc0:	ff 25 f2 42 20 00    	jmpq   *0x2042f2(%rip)        # 6050b8 <random@GLIBC_2.2.5>
  400dc6:	68 14 00 00 00       	pushq  $0x14
  400dcb:	e9 a0 fe ff ff       	jmpq   400c70 <.plt>

0000000000400dd0 <_IO_getc@plt>:
  400dd0:	ff 25 ea 42 20 00    	jmpq   *0x2042ea(%rip)        # 6050c0 <_IO_getc@GLIBC_2.2.5>
  400dd6:	68 15 00 00 00       	pushq  $0x15
  400ddb:	e9 90 fe ff ff       	jmpq   400c70 <.plt>

0000000000400de0 <__isoc99_sscanf@plt>:
  400de0:	ff 25 e2 42 20 00    	jmpq   *0x2042e2(%rip)        # 6050c8 <__isoc99_sscanf@GLIBC_2.7>
  400de6:	68 16 00 00 00       	pushq  $0x16
  400deb:	e9 80 fe ff ff       	jmpq   400c70 <.plt>

0000000000400df0 <munmap@plt>:
  400df0:	ff 25 da 42 20 00    	jmpq   *0x2042da(%rip)        # 6050d0 <munmap@GLIBC_2.2.5>
  400df6:	68 17 00 00 00       	pushq  $0x17
  400dfb:	e9 70 fe ff ff       	jmpq   400c70 <.plt>

0000000000400e00 <__printf_chk@plt>:
  400e00:	ff 25 d2 42 20 00    	jmpq   *0x2042d2(%rip)        # 6050d8 <__printf_chk@GLIBC_2.3.4>
  400e06:	68 18 00 00 00       	pushq  $0x18
  400e0b:	e9 60 fe ff ff       	jmpq   400c70 <.plt>

0000000000400e10 <fopen@plt>:
  400e10:	ff 25 ca 42 20 00    	jmpq   *0x2042ca(%rip)        # 6050e0 <fopen@GLIBC_2.2.5>
  400e16:	68 19 00 00 00       	pushq  $0x19
  400e1b:	e9 50 fe ff ff       	jmpq   400c70 <.plt>

0000000000400e20 <getopt@plt>:
  400e20:	ff 25 c2 42 20 00    	jmpq   *0x2042c2(%rip)        # 6050e8 <getopt@GLIBC_2.2.5>
  400e26:	68 1a 00 00 00       	pushq  $0x1a
  400e2b:	e9 40 fe ff ff       	jmpq   400c70 <.plt>

0000000000400e30 <strtoul@plt>:
  400e30:	ff 25 ba 42 20 00    	jmpq   *0x2042ba(%rip)        # 6050f0 <strtoul@GLIBC_2.2.5>
  400e36:	68 1b 00 00 00       	pushq  $0x1b
  400e3b:	e9 30 fe ff ff       	jmpq   400c70 <.plt>

0000000000400e40 <gethostname@plt>:
  400e40:	ff 25 b2 42 20 00    	jmpq   *0x2042b2(%rip)        # 6050f8 <gethostname@GLIBC_2.2.5>
  400e46:	68 1c 00 00 00       	pushq  $0x1c
  400e4b:	e9 20 fe ff ff       	jmpq   400c70 <.plt>

0000000000400e50 <exit@plt>:
  400e50:	ff 25 aa 42 20 00    	jmpq   *0x2042aa(%rip)        # 605100 <exit@GLIBC_2.2.5>
  400e56:	68 1d 00 00 00       	pushq  $0x1d
  400e5b:	e9 10 fe ff ff       	jmpq   400c70 <.plt>

0000000000400e60 <connect@plt>:
  400e60:	ff 25 a2 42 20 00    	jmpq   *0x2042a2(%rip)        # 605108 <connect@GLIBC_2.2.5>
  400e66:	68 1e 00 00 00       	pushq  $0x1e
  400e6b:	e9 00 fe ff ff       	jmpq   400c70 <.plt>

0000000000400e70 <__fprintf_chk@plt>:
  400e70:	ff 25 9a 42 20 00    	jmpq   *0x20429a(%rip)        # 605110 <__fprintf_chk@GLIBC_2.3.4>
  400e76:	68 1f 00 00 00       	pushq  $0x1f
  400e7b:	e9 f0 fd ff ff       	jmpq   400c70 <.plt>

0000000000400e80 <__sprintf_chk@plt>:
  400e80:	ff 25 92 42 20 00    	jmpq   *0x204292(%rip)        # 605118 <__sprintf_chk@GLIBC_2.3.4>
  400e86:	68 20 00 00 00       	pushq  $0x20
  400e8b:	e9 e0 fd ff ff       	jmpq   400c70 <.plt>

0000000000400e90 <socket@plt>:
  400e90:	ff 25 8a 42 20 00    	jmpq   *0x20428a(%rip)        # 605120 <socket@GLIBC_2.2.5>
  400e96:	68 21 00 00 00       	pushq  $0x21
  400e9b:	e9 d0 fd ff ff       	jmpq   400c70 <.plt>

Disassembly of section .plt.got:

0000000000400ea0 <.plt.got>:
  400ea0:	ff 25 52 41 20 00    	jmpq   *0x204152(%rip)        # 604ff8 <__gmon_start__>
  400ea6:	66 90                	xchg   %ax,%ax

Disassembly of section .text:

0000000000400eb0 <_start>:
  400eb0:	31 ed                	xor    %ebp,%ebp
  400eb2:	49 89 d1             	mov    %rdx,%r9
  400eb5:	5e                   	pop    %rsi
  400eb6:	48 89 e2             	mov    %rsp,%rdx
  400eb9:	48 83 e4 f0          	and    $0xfffffffffffffff0,%rsp
  400ebd:	50                   	push   %rax
  400ebe:	54                   	push   %rsp
  400ebf:	49 c7 c0 f0 2e 40 00 	mov    $0x402ef0,%r8
  400ec6:	48 c7 c1 80 2e 40 00 	mov    $0x402e80,%rcx
  400ecd:	48 c7 c7 b5 11 40 00 	mov    $0x4011b5,%rdi
  400ed4:	e8 77 fe ff ff       	callq  400d50 <__libc_start_main@plt>
  400ed9:	f4                   	hlt    
  400eda:	66 0f 1f 44 00 00    	nopw   0x0(%rax,%rax,1)

0000000000400ee0 <deregister_tm_clones>:
  400ee0:	b8 b7 54 60 00       	mov    $0x6054b7,%eax
  400ee5:	55                   	push   %rbp
  400ee6:	48 2d b0 54 60 00    	sub    $0x6054b0,%rax
  400eec:	48 83 f8 0e          	cmp    $0xe,%rax
  400ef0:	48 89 e5             	mov    %rsp,%rbp
  400ef3:	76 1b                	jbe    400f10 <deregister_tm_clones+0x30>
  400ef5:	b8 00 00 00 00       	mov    $0x0,%eax
  400efa:	48 85 c0             	test   %rax,%rax
  400efd:	74 11                	je     400f10 <deregister_tm_clones+0x30>
  400eff:	5d                   	pop    %rbp
  400f00:	bf b0 54 60 00       	mov    $0x6054b0,%edi
  400f05:	ff e0                	jmpq   *%rax
  400f07:	66 0f 1f 84 00 00 00 	nopw   0x0(%rax,%rax,1)
  400f0e:	00 00 
  400f10:	5d                   	pop    %rbp
  400f11:	c3                   	retq   
  400f12:	0f 1f 40 00          	nopl   0x0(%rax)
  400f16:	66 2e 0f 1f 84 00 00 	nopw   %cs:0x0(%rax,%rax,1)
  400f1d:	00 00 00 

0000000000400f20 <register_tm_clones>:
  400f20:	be b0 54 60 00       	mov    $0x6054b0,%esi
  400f25:	55                   	push   %rbp
  400f26:	48 81 ee b0 54 60 00 	sub    $0x6054b0,%rsi
  400f2d:	48 c1 fe 03          	sar    $0x3,%rsi
  400f31:	48 89 e5             	mov    %rsp,%rbp
  400f34:	48 89 f0             	mov    %rsi,%rax
  400f37:	48 c1 e8 3f          	shr    $0x3f,%rax
  400f3b:	48 01 c6             	add    %rax,%rsi
  400f3e:	48 d1 fe             	sar    %rsi
  400f41:	74 15                	je     400f58 <register_tm_clones+0x38>
  400f43:	b8 00 00 00 00       	mov    $0x0,%eax
  400f48:	48 85 c0             	test   %rax,%rax
  400f4b:	74 0b                	je     400f58 <register_tm_clones+0x38>
  400f4d:	5d                   	pop    %rbp
  400f4e:	bf b0 54 60 00       	mov    $0x6054b0,%edi
  400f53:	ff e0                	jmpq   *%rax
  400f55:	0f 1f 00             	nopl   (%rax)
  400f58:	5d                   	pop    %rbp
  400f59:	c3                   	retq   
  400f5a:	66 0f 1f 44 00 00    	nopw   0x0(%rax,%rax,1)

0000000000400f60 <__do_global_dtors_aux>:
  400f60:	80 3d 81 45 20 00 00 	cmpb   $0x0,0x204581(%rip)        # 6054e8 <completed.7594>
  400f67:	75 11                	jne    400f7a <__do_global_dtors_aux+0x1a>
  400f69:	55                   	push   %rbp
  400f6a:	48 89 e5             	mov    %rsp,%rbp
  400f6d:	e8 6e ff ff ff       	callq  400ee0 <deregister_tm_clones>
  400f72:	5d                   	pop    %rbp
  400f73:	c6 05 6e 45 20 00 01 	movb   $0x1,0x20456e(%rip)        # 6054e8 <completed.7594>
  400f7a:	f3 c3                	repz retq 
  400f7c:	0f 1f 40 00          	nopl   0x0(%rax)

0000000000400f80 <frame_dummy>:
  400f80:	bf 20 4e 60 00       	mov    $0x604e20,%edi
  400f85:	48 83 3f 00          	cmpq   $0x0,(%rdi)
  400f89:	75 05                	jne    400f90 <frame_dummy+0x10>
  400f8b:	eb 93                	jmp    400f20 <register_tm_clones>
  400f8d:	0f 1f 00             	nopl   (%rax)
  400f90:	b8 00 00 00 00       	mov    $0x0,%eax
  400f95:	48 85 c0             	test   %rax,%rax
  400f98:	74 f1                	je     400f8b <frame_dummy+0xb>
  400f9a:	55                   	push   %rbp
  400f9b:	48 89 e5             	mov    %rsp,%rbp
  400f9e:	ff d0                	callq  *%rax
  400fa0:	5d                   	pop    %rbp
  400fa1:	e9 7a ff ff ff       	jmpq   400f20 <register_tm_clones>

0000000000400fa6 <usage>:
  400fa6:	48 83 ec 08          	sub    $0x8,%rsp
  400faa:	48 89 fa             	mov    %rdi,%rdx
  400fad:	83 3d 74 45 20 00 00 	cmpl   $0x0,0x204574(%rip)        # 605528 <is_checker>
  400fb4:	74 3e                	je     400ff4 <usage+0x4e>
  400fb6:	be 08 2f 40 00       	mov    $0x402f08,%esi
  400fbb:	bf 01 00 00 00       	mov    $0x1,%edi
  400fc0:	b8 00 00 00 00       	mov    $0x0,%eax
  400fc5:	e8 36 fe ff ff       	callq  400e00 <__printf_chk@plt>
  400fca:	bf 40 2f 40 00       	mov    $0x402f40,%edi
  400fcf:	e8 fc fc ff ff       	callq  400cd0 <puts@plt>
  400fd4:	bf b8 30 40 00       	mov    $0x4030b8,%edi
  400fd9:	e8 f2 fc ff ff       	callq  400cd0 <puts@plt>
  400fde:	bf 68 2f 40 00       	mov    $0x402f68,%edi
  400fe3:	e8 e8 fc ff ff       	callq  400cd0 <puts@plt>
  400fe8:	bf d2 30 40 00       	mov    $0x4030d2,%edi
  400fed:	e8 de fc ff ff       	callq  400cd0 <puts@plt>
  400ff2:	eb 32                	jmp    401026 <usage+0x80>
  400ff4:	be ee 30 40 00       	mov    $0x4030ee,%esi
  400ff9:	bf 01 00 00 00       	mov    $0x1,%edi
  400ffe:	b8 00 00 00 00       	mov    $0x0,%eax
  401003:	e8 f8 fd ff ff       	callq  400e00 <__printf_chk@plt>
  401008:	bf 90 2f 40 00       	mov    $0x402f90,%edi
  40100d:	e8 be fc ff ff       	callq  400cd0 <puts@plt>
  401012:	bf b8 2f 40 00       	mov    $0x402fb8,%edi
  401017:	e8 b4 fc ff ff       	callq  400cd0 <puts@plt>
  40101c:	bf 0c 31 40 00       	mov    $0x40310c,%edi
  401021:	e8 aa fc ff ff       	callq  400cd0 <puts@plt>
  401026:	bf 00 00 00 00       	mov    $0x0,%edi
  40102b:	e8 20 fe ff ff       	callq  400e50 <exit@plt>

0000000000401030 <initialize_target>:
  401030:	55                   	push   %rbp
  401031:	53                   	push   %rbx
  401032:	48 81 ec 18 21 00 00 	sub    $0x2118,%rsp
  401039:	89 f5                	mov    %esi,%ebp
  40103b:	64 48 8b 04 25 28 00 	mov    %fs:0x28,%rax
  401042:	00 00 
  401044:	48 89 84 24 08 21 00 	mov    %rax,0x2108(%rsp)
  40104b:	00 
  40104c:	31 c0                	xor    %eax,%eax
  40104e:	89 3d c4 44 20 00    	mov    %edi,0x2044c4(%rip)        # 605518 <check_level>
  401054:	8b 3d 0e 41 20 00    	mov    0x20410e(%rip),%edi        # 605168 <target_id>
  40105a:	e8 f7 1d 00 00       	callq  402e56 <gencookie>
  40105f:	89 05 bf 44 20 00    	mov    %eax,0x2044bf(%rip)        # 605524 <cookie>
  401065:	89 c7                	mov    %eax,%edi
  401067:	e8 ea 1d 00 00       	callq  402e56 <gencookie>
  40106c:	89 05 ae 44 20 00    	mov    %eax,0x2044ae(%rip)        # 605520 <authkey>
  401072:	8b 05 f0 40 20 00    	mov    0x2040f0(%rip),%eax        # 605168 <target_id>
  401078:	8d 78 01             	lea    0x1(%rax),%edi
  40107b:	e8 20 fc ff ff       	callq  400ca0 <srandom@plt>
  401080:	e8 3b fd ff ff       	callq  400dc0 <random@plt>
  401085:	89 c7                	mov    %eax,%edi
  401087:	e8 03 03 00 00       	callq  40138f <scramble>
  40108c:	89 c3                	mov    %eax,%ebx
  40108e:	85 ed                	test   %ebp,%ebp
  401090:	74 18                	je     4010aa <initialize_target+0x7a>
  401092:	bf 00 00 00 00       	mov    $0x0,%edi
  401097:	e8 14 fd ff ff       	callq  400db0 <time@plt>
  40109c:	89 c7                	mov    %eax,%edi
  40109e:	e8 fd fb ff ff       	callq  400ca0 <srandom@plt>
  4010a3:	e8 18 fd ff ff       	callq  400dc0 <random@plt>
  4010a8:	eb 05                	jmp    4010af <initialize_target+0x7f>
  4010aa:	b8 00 00 00 00       	mov    $0x0,%eax
  4010af:	01 c3                	add    %eax,%ebx
  4010b1:	0f b7 db             	movzwl %bx,%ebx
  4010b4:	8d 04 dd 00 01 00 00 	lea    0x100(,%rbx,8),%eax
  4010bb:	89 c0                	mov    %eax,%eax
  4010bd:	48 89 05 dc 43 20 00 	mov    %rax,0x2043dc(%rip)        # 6054a0 <buf_offset>
  4010c4:	c6 05 7d 50 20 00 63 	movb   $0x63,0x20507d(%rip)        # 606148 <target_prefix>
  4010cb:	83 3d d6 43 20 00 00 	cmpl   $0x0,0x2043d6(%rip)        # 6054a8 <notify>
  4010d2:	0f 84 bb 00 00 00    	je     401193 <initialize_target+0x163>
  4010d8:	83 3d 49 44 20 00 00 	cmpl   $0x0,0x204449(%rip)        # 605528 <is_checker>
  4010df:	0f 85 ae 00 00 00    	jne    401193 <initialize_target+0x163>
  4010e5:	be 00 01 00 00       	mov    $0x100,%esi
  4010ea:	48 89 e7             	mov    %rsp,%rdi
  4010ed:	e8 4e fd ff ff       	callq  400e40 <gethostname@plt>
  4010f2:	85 c0                	test   %eax,%eax
  4010f4:	74 25                	je     40111b <initialize_target+0xeb>
  4010f6:	bf e8 2f 40 00       	mov    $0x402fe8,%edi
  4010fb:	e8 d0 fb ff ff       	callq  400cd0 <puts@plt>
  401100:	bf 08 00 00 00       	mov    $0x8,%edi
  401105:	e8 46 fd ff ff       	callq  400e50 <exit@plt>
  40110a:	48 89 e6             	mov    %rsp,%rsi
  40110d:	e8 6e fb ff ff       	callq  400c80 <strcasecmp@plt>
  401112:	85 c0                	test   %eax,%eax
  401114:	74 21                	je     401137 <initialize_target+0x107>
  401116:	83 c3 01             	add    $0x1,%ebx
  401119:	eb 05                	jmp    401120 <initialize_target+0xf0>
  40111b:	bb 00 00 00 00       	mov    $0x0,%ebx
  401120:	48 63 c3             	movslq %ebx,%rax
  401123:	48 8b 3c c5 80 51 60 	mov    0x605180(,%rax,8),%rdi
  40112a:	00 
  40112b:	48 85 ff             	test   %rdi,%rdi
  40112e:	75 da                	jne    40110a <initialize_target+0xda>
  401130:	b8 00 00 00 00       	mov    $0x0,%eax
  401135:	eb 05                	jmp    40113c <initialize_target+0x10c>
  401137:	b8 01 00 00 00       	mov    $0x1,%eax
  40113c:	85 c0                	test   %eax,%eax
  40113e:	75 1c                	jne    40115c <initialize_target+0x12c>
  401140:	48 89 e2             	mov    %rsp,%rdx
  401143:	be 20 30 40 00       	mov    $0x403020,%esi
  401148:	bf 01 00 00 00       	mov    $0x1,%edi
  40114d:	e8 ae fc ff ff       	callq  400e00 <__printf_chk@plt>
  401152:	bf 08 00 00 00       	mov    $0x8,%edi
  401157:	e8 f4 fc ff ff       	callq  400e50 <exit@plt>
  40115c:	48 8d bc 24 00 01 00 	lea    0x100(%rsp),%rdi
  401163:	00 
  401164:	e8 42 1a 00 00       	callq  402bab <init_driver>
  401169:	85 c0                	test   %eax,%eax
  40116b:	79 26                	jns    401193 <initialize_target+0x163>
  40116d:	48 8d 94 24 00 01 00 	lea    0x100(%rsp),%rdx
  401174:	00 
  401175:	be 60 30 40 00       	mov    $0x403060,%esi
  40117a:	bf 01 00 00 00       	mov    $0x1,%edi
  40117f:	b8 00 00 00 00       	mov    $0x0,%eax
  401184:	e8 77 fc ff ff       	callq  400e00 <__printf_chk@plt>
  401189:	bf 08 00 00 00       	mov    $0x8,%edi
  40118e:	e8 bd fc ff ff       	callq  400e50 <exit@plt>
  401193:	48 8b 84 24 08 21 00 	mov    0x2108(%rsp),%rax
  40119a:	00 
  40119b:	64 48 33 04 25 28 00 	xor    %fs:0x28,%rax
  4011a2:	00 00 
  4011a4:	74 05                	je     4011ab <initialize_target+0x17b>
  4011a6:	e8 45 fb ff ff       	callq  400cf0 <__stack_chk_fail@plt>
  4011ab:	48 81 c4 18 21 00 00 	add    $0x2118,%rsp
  4011b2:	5b                   	pop    %rbx
  4011b3:	5d                   	pop    %rbp
  4011b4:	c3                   	retq   

00000000004011b5 <main>:
  4011b5:	41 56                	push   %r14
  4011b7:	41 55                	push   %r13
  4011b9:	41 54                	push   %r12
  4011bb:	55                   	push   %rbp
  4011bc:	53                   	push   %rbx
  4011bd:	41 89 fc             	mov    %edi,%r12d
  4011c0:	48 89 f3             	mov    %rsi,%rbx
  4011c3:	be a8 1e 40 00       	mov    $0x401ea8,%esi
  4011c8:	bf 0b 00 00 00       	mov    $0xb,%edi
  4011cd:	e8 8e fb ff ff       	callq  400d60 <signal@plt>
  4011d2:	be 5a 1e 40 00       	mov    $0x401e5a,%esi
  4011d7:	bf 07 00 00 00       	mov    $0x7,%edi
  4011dc:	e8 7f fb ff ff       	callq  400d60 <signal@plt>
  4011e1:	be f6 1e 40 00       	mov    $0x401ef6,%esi
  4011e6:	bf 04 00 00 00       	mov    $0x4,%edi
  4011eb:	e8 70 fb ff ff       	callq  400d60 <signal@plt>
  4011f0:	83 3d 31 43 20 00 00 	cmpl   $0x0,0x204331(%rip)        # 605528 <is_checker>
  4011f7:	74 20                	je     401219 <main+0x64>
  4011f9:	be 44 1f 40 00       	mov    $0x401f44,%esi
  4011fe:	bf 0e 00 00 00       	mov    $0xe,%edi
  401203:	e8 58 fb ff ff       	callq  400d60 <signal@plt>
  401208:	bf 05 00 00 00       	mov    $0x5,%edi
  40120d:	e8 0e fb ff ff       	callq  400d20 <alarm@plt>
  401212:	bd 2a 31 40 00       	mov    $0x40312a,%ebp
  401217:	eb 05                	jmp    40121e <main+0x69>
  401219:	bd 25 31 40 00       	mov    $0x403125,%ebp
  40121e:	48 8b 05 9b 42 20 00 	mov    0x20429b(%rip),%rax        # 6054c0 <stdin@@GLIBC_2.2.5>
  401225:	48 89 05 e4 42 20 00 	mov    %rax,0x2042e4(%rip)        # 605510 <infile>
  40122c:	41 bd 00 00 00 00    	mov    $0x0,%r13d
  401232:	41 be 00 00 00 00    	mov    $0x0,%r14d
  401238:	e9 c6 00 00 00       	jmpq   401303 <main+0x14e>
  40123d:	83 e8 61             	sub    $0x61,%eax
  401240:	3c 10                	cmp    $0x10,%al
  401242:	0f 87 9c 00 00 00    	ja     4012e4 <main+0x12f>
  401248:	0f b6 c0             	movzbl %al,%eax
  40124b:	ff 24 c5 70 31 40 00 	jmpq   *0x403170(,%rax,8)
  401252:	48 8b 3b             	mov    (%rbx),%rdi
  401255:	e8 4c fd ff ff       	callq  400fa6 <usage>
  40125a:	be ed 33 40 00       	mov    $0x4033ed,%esi
  40125f:	48 8b 3d 62 42 20 00 	mov    0x204262(%rip),%rdi        # 6054c8 <optarg@@GLIBC_2.2.5>
  401266:	e8 a5 fb ff ff       	callq  400e10 <fopen@plt>
  40126b:	48 89 05 9e 42 20 00 	mov    %rax,0x20429e(%rip)        # 605510 <infile>
  401272:	48 85 c0             	test   %rax,%rax
  401275:	0f 85 88 00 00 00    	jne    401303 <main+0x14e>
  40127b:	48 8b 0d 46 42 20 00 	mov    0x204246(%rip),%rcx        # 6054c8 <optarg@@GLIBC_2.2.5>
  401282:	ba 32 31 40 00       	mov    $0x403132,%edx
  401287:	be 01 00 00 00       	mov    $0x1,%esi
  40128c:	48 8b 3d 4d 42 20 00 	mov    0x20424d(%rip),%rdi        # 6054e0 <stderr@@GLIBC_2.2.5>
  401293:	e8 d8 fb ff ff       	callq  400e70 <__fprintf_chk@plt>
  401298:	b8 01 00 00 00       	mov    $0x1,%eax
  40129d:	e9 e4 00 00 00       	jmpq   401386 <main+0x1d1>
  4012a2:	ba 10 00 00 00       	mov    $0x10,%edx
  4012a7:	be 00 00 00 00       	mov    $0x0,%esi
  4012ac:	48 8b 3d 15 42 20 00 	mov    0x204215(%rip),%rdi        # 6054c8 <optarg@@GLIBC_2.2.5>
  4012b3:	e8 78 fb ff ff       	callq  400e30 <strtoul@plt>
  4012b8:	41 89 c6             	mov    %eax,%r14d
  4012bb:	eb 46                	jmp    401303 <main+0x14e>
  4012bd:	ba 0a 00 00 00       	mov    $0xa,%edx
  4012c2:	be 00 00 00 00       	mov    $0x0,%esi
  4012c7:	48 8b 3d fa 41 20 00 	mov    0x2041fa(%rip),%rdi        # 6054c8 <optarg@@GLIBC_2.2.5>
  4012ce:	e8 bd fa ff ff       	callq  400d90 <strtol@plt>
  4012d3:	41 89 c5             	mov    %eax,%r13d
  4012d6:	eb 2b                	jmp    401303 <main+0x14e>
  4012d8:	c7 05 c6 41 20 00 00 	movl   $0x0,0x2041c6(%rip)        # 6054a8 <notify>
  4012df:	00 00 00 
  4012e2:	eb 1f                	jmp    401303 <main+0x14e>
  4012e4:	0f be d2             	movsbl %dl,%edx
  4012e7:	be 4f 31 40 00       	mov    $0x40314f,%esi
  4012ec:	bf 01 00 00 00       	mov    $0x1,%edi
  4012f1:	b8 00 00 00 00       	mov    $0x0,%eax
  4012f6:	e8 05 fb ff ff       	callq  400e00 <__printf_chk@plt>
  4012fb:	48 8b 3b             	mov    (%rbx),%rdi
  4012fe:	e8 a3 fc ff ff       	callq  400fa6 <usage>
  401303:	48 89 ea             	mov    %rbp,%rdx
  401306:	48 89 de             	mov    %rbx,%rsi
  401309:	44 89 e7             	mov    %r12d,%edi
  40130c:	e8 0f fb ff ff       	callq  400e20 <getopt@plt>
  401311:	89 c2                	mov    %eax,%edx
  401313:	3c ff                	cmp    $0xff,%al
  401315:	0f 85 22 ff ff ff    	jne    40123d <main+0x88>
  40131b:	be 00 00 00 00       	mov    $0x0,%esi
  401320:	44 89 ef             	mov    %r13d,%edi
  401323:	e8 08 fd ff ff       	callq  401030 <initialize_target>
  401328:	83 3d f9 41 20 00 00 	cmpl   $0x0,0x2041f9(%rip)        # 605528 <is_checker>
  40132f:	74 2a                	je     40135b <main+0x1a6>
  401331:	44 3b 35 e8 41 20 00 	cmp    0x2041e8(%rip),%r14d        # 605520 <authkey>
  401338:	74 21                	je     40135b <main+0x1a6>
  40133a:	44 89 f2             	mov    %r14d,%edx
  40133d:	be 88 30 40 00       	mov    $0x403088,%esi
  401342:	bf 01 00 00 00       	mov    $0x1,%edi
  401347:	b8 00 00 00 00       	mov    $0x0,%eax
  40134c:	e8 af fa ff ff       	callq  400e00 <__printf_chk@plt>
  401351:	b8 00 00 00 00       	mov    $0x0,%eax
  401356:	e8 9b 07 00 00       	callq  401af6 <check_fail>
  40135b:	8b 15 c3 41 20 00    	mov    0x2041c3(%rip),%edx        # 605524 <cookie>
  401361:	be 62 31 40 00       	mov    $0x403162,%esi
  401366:	bf 01 00 00 00       	mov    $0x1,%edi
  40136b:	b8 00 00 00 00       	mov    $0x0,%eax
  401370:	e8 8b fa ff ff       	callq  400e00 <__printf_chk@plt>
  401375:	48 8b 3d 24 41 20 00 	mov    0x204124(%rip),%rdi        # 6054a0 <buf_offset>
  40137c:	e8 c3 0c 00 00       	callq  402044 <stable_launch>
  401381:	b8 00 00 00 00       	mov    $0x0,%eax
  401386:	5b                   	pop    %rbx
  401387:	5d                   	pop    %rbp
  401388:	41 5c                	pop    %r12
  40138a:	41 5d                	pop    %r13
  40138c:	41 5e                	pop    %r14
  40138e:	c3                   	retq   

000000000040138f <scramble>:
  40138f:	48 83 ec 38          	sub    $0x38,%rsp
  401393:	64 48 8b 04 25 28 00 	mov    %fs:0x28,%rax
  40139a:	00 00 
  40139c:	48 89 44 24 28       	mov    %rax,0x28(%rsp)
  4013a1:	31 c0                	xor    %eax,%eax
  4013a3:	eb 10                	jmp    4013b5 <scramble+0x26>
  4013a5:	69 d0 2c fd 00 00    	imul   $0xfd2c,%eax,%edx
  4013ab:	01 fa                	add    %edi,%edx
  4013ad:	89 c1                	mov    %eax,%ecx
  4013af:	89 14 8c             	mov    %edx,(%rsp,%rcx,4)
  4013b2:	83 c0 01             	add    $0x1,%eax
  4013b5:	83 f8 09             	cmp    $0x9,%eax
  4013b8:	76 eb                	jbe    4013a5 <scramble+0x16>
  4013ba:	8b 04 24             	mov    (%rsp),%eax
  4013bd:	69 c0 5a c0 00 00    	imul   $0xc05a,%eax,%eax
  4013c3:	89 04 24             	mov    %eax,(%rsp)
  4013c6:	8b 44 24 14          	mov    0x14(%rsp),%eax
  4013ca:	69 c0 00 19 00 00    	imul   $0x1900,%eax,%eax
  4013d0:	89 44 24 14          	mov    %eax,0x14(%rsp)
  4013d4:	8b 44 24 10          	mov    0x10(%rsp),%eax
  4013d8:	69 c0 fc ab 00 00    	imul   $0xabfc,%eax,%eax
  4013de:	89 44 24 10          	mov    %eax,0x10(%rsp)
  4013e2:	8b 44 24 14          	mov    0x14(%rsp),%eax
  4013e6:	69 c0 50 e8 00 00    	imul   $0xe850,%eax,%eax
  4013ec:	89 44 24 14          	mov    %eax,0x14(%rsp)
  4013f0:	8b 04 24             	mov    (%rsp),%eax
  4013f3:	69 c0 94 e9 00 00    	imul   $0xe994,%eax,%eax
  4013f9:	89 04 24             	mov    %eax,(%rsp)
  4013fc:	8b 44 24 0c          	mov    0xc(%rsp),%eax
  401400:	69 c0 28 17 00 00    	imul   $0x1728,%eax,%eax
  401406:	89 44 24 0c          	mov    %eax,0xc(%rsp)
  40140a:	8b 44 24 04          	mov    0x4(%rsp),%eax
  40140e:	69 c0 2d cd 00 00    	imul   $0xcd2d,%eax,%eax
  401414:	89 44 24 04          	mov    %eax,0x4(%rsp)
  401418:	8b 04 24             	mov    (%rsp),%eax
  40141b:	69 c0 38 a2 00 00    	imul   $0xa238,%eax,%eax
  401421:	89 04 24             	mov    %eax,(%rsp)
  401424:	8b 44 24 18          	mov    0x18(%rsp),%eax
  401428:	69 c0 b0 37 00 00    	imul   $0x37b0,%eax,%eax
  40142e:	89 44 24 18          	mov    %eax,0x18(%rsp)
  401432:	8b 44 24 14          	mov    0x14(%rsp),%eax
  401436:	69 c0 87 a7 00 00    	imul   $0xa787,%eax,%eax
  40143c:	89 44 24 14          	mov    %eax,0x14(%rsp)
  401440:	8b 44 24 24          	mov    0x24(%rsp),%eax
  401444:	69 c0 a5 49 00 00    	imul   $0x49a5,%eax,%eax
  40144a:	89 44 24 24          	mov    %eax,0x24(%rsp)
  40144e:	8b 44 24 04          	mov    0x4(%rsp),%eax
  401452:	69 c0 f8 69 00 00    	imul   $0x69f8,%eax,%eax
  401458:	89 44 24 04          	mov    %eax,0x4(%rsp)
  40145c:	8b 44 24 1c          	mov    0x1c(%rsp),%eax
  401460:	69 c0 1e ee 00 00    	imul   $0xee1e,%eax,%eax
  401466:	89 44 24 1c          	mov    %eax,0x1c(%rsp)
  40146a:	8b 44 24 0c          	mov    0xc(%rsp),%eax
  40146e:	69 c0 aa b2 00 00    	imul   $0xb2aa,%eax,%eax
  401474:	89 44 24 0c          	mov    %eax,0xc(%rsp)
  401478:	8b 44 24 1c          	mov    0x1c(%rsp),%eax
  40147c:	69 c0 07 14 00 00    	imul   $0x1407,%eax,%eax
  401482:	89 44 24 1c          	mov    %eax,0x1c(%rsp)
  401486:	8b 44 24 1c          	mov    0x1c(%rsp),%eax
  40148a:	69 c0 7e 7a 00 00    	imul   $0x7a7e,%eax,%eax
  401490:	89 44 24 1c          	mov    %eax,0x1c(%rsp)
  401494:	8b 44 24 08          	mov    0x8(%rsp),%eax
  401498:	69 c0 9f 1f 00 00    	imul   $0x1f9f,%eax,%eax
  40149e:	89 44 24 08          	mov    %eax,0x8(%rsp)
  4014a2:	8b 44 24 04          	mov    0x4(%rsp),%eax
  4014a6:	69 c0 a0 eb 00 00    	imul   $0xeba0,%eax,%eax
  4014ac:	89 44 24 04          	mov    %eax,0x4(%rsp)
  4014b0:	8b 44 24 0c          	mov    0xc(%rsp),%eax
  4014b4:	69 c0 96 08 00 00    	imul   $0x896,%eax,%eax
  4014ba:	89 44 24 0c          	mov    %eax,0xc(%rsp)
  4014be:	8b 44 24 24          	mov    0x24(%rsp),%eax
  4014c2:	69 c0 c6 28 00 00    	imul   $0x28c6,%eax,%eax
  4014c8:	89 44 24 24          	mov    %eax,0x24(%rsp)
  4014cc:	8b 44 24 20          	mov    0x20(%rsp),%eax
  4014d0:	69 c0 bd a1 00 00    	imul   $0xa1bd,%eax,%eax
  4014d6:	89 44 24 20          	mov    %eax,0x20(%rsp)
  4014da:	8b 44 24 20          	mov    0x20(%rsp),%eax
  4014de:	69 c0 ca 8e 00 00    	imul   $0x8eca,%eax,%eax
  4014e4:	89 44 24 20          	mov    %eax,0x20(%rsp)
  4014e8:	8b 44 24 10          	mov    0x10(%rsp),%eax
  4014ec:	69 c0 fa c9 00 00    	imul   $0xc9fa,%eax,%eax
  4014f2:	89 44 24 10          	mov    %eax,0x10(%rsp)
  4014f6:	8b 44 24 08          	mov    0x8(%rsp),%eax
  4014fa:	69 c0 4b 43 00 00    	imul   $0x434b,%eax,%eax
  401500:	89 44 24 08          	mov    %eax,0x8(%rsp)
  401504:	8b 44 24 08          	mov    0x8(%rsp),%eax
  401508:	69 c0 47 19 00 00    	imul   $0x1947,%eax,%eax
  40150e:	89 44 24 08          	mov    %eax,0x8(%rsp)
  401512:	8b 44 24 20          	mov    0x20(%rsp),%eax
  401516:	69 c0 cd d0 00 00    	imul   $0xd0cd,%eax,%eax
  40151c:	89 44 24 20          	mov    %eax,0x20(%rsp)
  401520:	8b 04 24             	mov    (%rsp),%eax
  401523:	69 c0 4b 05 00 00    	imul   $0x54b,%eax,%eax
  401529:	89 04 24             	mov    %eax,(%rsp)
  40152c:	8b 44 24 04          	mov    0x4(%rsp),%eax
  401530:	69 c0 b5 03 00 00    	imul   $0x3b5,%eax,%eax
  401536:	89 44 24 04          	mov    %eax,0x4(%rsp)
  40153a:	8b 44 24 1c          	mov    0x1c(%rsp),%eax
  40153e:	69 c0 f3 6b 00 00    	imul   $0x6bf3,%eax,%eax
  401544:	89 44 24 1c          	mov    %eax,0x1c(%rsp)
  401548:	8b 44 24 08          	mov    0x8(%rsp),%eax
  40154c:	69 c0 bb 70 00 00    	imul   $0x70bb,%eax,%eax
  401552:	89 44 24 08          	mov    %eax,0x8(%rsp)
  401556:	8b 44 24 04          	mov    0x4(%rsp),%eax
  40155a:	69 c0 da 03 00 00    	imul   $0x3da,%eax,%eax
  401560:	89 44 24 04          	mov    %eax,0x4(%rsp)
  401564:	8b 44 24 10          	mov    0x10(%rsp),%eax
  401568:	69 c0 5b 54 00 00    	imul   $0x545b,%eax,%eax
  40156e:	89 44 24 10          	mov    %eax,0x10(%rsp)
  401572:	8b 44 24 10          	mov    0x10(%rsp),%eax
  401576:	69 c0 b7 7e 00 00    	imul   $0x7eb7,%eax,%eax
  40157c:	89 44 24 10          	mov    %eax,0x10(%rsp)
  401580:	8b 44 24 0c          	mov    0xc(%rsp),%eax
  401584:	69 c0 15 ef 00 00    	imul   $0xef15,%eax,%eax
  40158a:	89 44 24 0c          	mov    %eax,0xc(%rsp)
  40158e:	8b 44 24 10          	mov    0x10(%rsp),%eax
  401592:	69 c0 ed 13 00 00    	imul   $0x13ed,%eax,%eax
  401598:	89 44 24 10          	mov    %eax,0x10(%rsp)
  40159c:	8b 44 24 10          	mov    0x10(%rsp),%eax
  4015a0:	69 c0 78 79 00 00    	imul   $0x7978,%eax,%eax
  4015a6:	89 44 24 10          	mov    %eax,0x10(%rsp)
  4015aa:	8b 44 24 24          	mov    0x24(%rsp),%eax
  4015ae:	69 c0 ca 57 00 00    	imul   $0x57ca,%eax,%eax
  4015b4:	89 44 24 24          	mov    %eax,0x24(%rsp)
  4015b8:	8b 44 24 18          	mov    0x18(%rsp),%eax
  4015bc:	69 c0 94 24 00 00    	imul   $0x2494,%eax,%eax
  4015c2:	89 44 24 18          	mov    %eax,0x18(%rsp)
  4015c6:	8b 44 24 0c          	mov    0xc(%rsp),%eax
  4015ca:	69 c0 45 39 00 00    	imul   $0x3945,%eax,%eax
  4015d0:	89 44 24 0c          	mov    %eax,0xc(%rsp)
  4015d4:	8b 04 24             	mov    (%rsp),%eax
  4015d7:	69 c0 6e 23 00 00    	imul   $0x236e,%eax,%eax
  4015dd:	89 04 24             	mov    %eax,(%rsp)
  4015e0:	8b 04 24             	mov    (%rsp),%eax
  4015e3:	69 c0 b2 52 00 00    	imul   $0x52b2,%eax,%eax
  4015e9:	89 04 24             	mov    %eax,(%rsp)
  4015ec:	8b 44 24 0c          	mov    0xc(%rsp),%eax
  4015f0:	69 c0 78 b5 00 00    	imul   $0xb578,%eax,%eax
  4015f6:	89 44 24 0c          	mov    %eax,0xc(%rsp)
  4015fa:	8b 04 24             	mov    (%rsp),%eax
  4015fd:	69 c0 02 2f 00 00    	imul   $0x2f02,%eax,%eax
  401603:	89 04 24             	mov    %eax,(%rsp)
  401606:	8b 44 24 1c          	mov    0x1c(%rsp),%eax
  40160a:	69 c0 67 4b 00 00    	imul   $0x4b67,%eax,%eax
  401610:	89 44 24 1c          	mov    %eax,0x1c(%rsp)
  401614:	8b 44 24 10          	mov    0x10(%rsp),%eax
  401618:	69 c0 8d 6f 00 00    	imul   $0x6f8d,%eax,%eax
  40161e:	89 44 24 10          	mov    %eax,0x10(%rsp)
  401622:	8b 44 24 10          	mov    0x10(%rsp),%eax
  401626:	69 c0 f0 1a 00 00    	imul   $0x1af0,%eax,%eax
  40162c:	89 44 24 10          	mov    %eax,0x10(%rsp)
  401630:	8b 44 24 0c          	mov    0xc(%rsp),%eax
  401634:	69 c0 5b a7 00 00    	imul   $0xa75b,%eax,%eax
  40163a:	89 44 24 0c          	mov    %eax,0xc(%rsp)
  40163e:	8b 04 24             	mov    (%rsp),%eax
  401641:	69 c0 e2 96 00 00    	imul   $0x96e2,%eax,%eax
  401647:	89 04 24             	mov    %eax,(%rsp)
  40164a:	8b 44 24 1c          	mov    0x1c(%rsp),%eax
  40164e:	69 c0 47 af 00 00    	imul   $0xaf47,%eax,%eax
  401654:	89 44 24 1c          	mov    %eax,0x1c(%rsp)
  401658:	8b 04 24             	mov    (%rsp),%eax
  40165b:	69 c0 5f ad 00 00    	imul   $0xad5f,%eax,%eax
  401661:	89 04 24             	mov    %eax,(%rsp)
  401664:	8b 04 24             	mov    (%rsp),%eax
  401667:	69 c0 d3 9d 00 00    	imul   $0x9dd3,%eax,%eax
  40166d:	89 04 24             	mov    %eax,(%rsp)
  401670:	8b 44 24 20          	mov    0x20(%rsp),%eax
  401674:	69 c0 de 78 00 00    	imul   $0x78de,%eax,%eax
  40167a:	89 44 24 20          	mov    %eax,0x20(%rsp)
  40167e:	8b 44 24 04          	mov    0x4(%rsp),%eax
  401682:	69 c0 1b 2f 00 00    	imul   $0x2f1b,%eax,%eax
  401688:	89 44 24 04          	mov    %eax,0x4(%rsp)
  40168c:	8b 44 24 20          	mov    0x20(%rsp),%eax
  401690:	69 c0 62 17 00 00    	imul   $0x1762,%eax,%eax
  401696:	89 44 24 20          	mov    %eax,0x20(%rsp)
  40169a:	8b 44 24 14          	mov    0x14(%rsp),%eax
  40169e:	69 c0 52 05 00 00    	imul   $0x552,%eax,%eax
  4016a4:	89 44 24 14          	mov    %eax,0x14(%rsp)
  4016a8:	8b 44 24 10          	mov    0x10(%rsp),%eax
  4016ac:	69 c0 ed ba 00 00    	imul   $0xbaed,%eax,%eax
  4016b2:	89 44 24 10          	mov    %eax,0x10(%rsp)
  4016b6:	8b 44 24 24          	mov    0x24(%rsp),%eax
  4016ba:	69 c0 0d 2f 00 00    	imul   $0x2f0d,%eax,%eax
  4016c0:	89 44 24 24          	mov    %eax,0x24(%rsp)
  4016c4:	8b 44 24 1c          	mov    0x1c(%rsp),%eax
  4016c8:	69 c0 02 b0 00 00    	imul   $0xb002,%eax,%eax
  4016ce:	89 44 24 1c          	mov    %eax,0x1c(%rsp)
  4016d2:	8b 44 24 14          	mov    0x14(%rsp),%eax
  4016d6:	69 c0 93 29 00 00    	imul   $0x2993,%eax,%eax
  4016dc:	89 44 24 14          	mov    %eax,0x14(%rsp)
  4016e0:	8b 44 24 24          	mov    0x24(%rsp),%eax
  4016e4:	69 c0 04 f9 00 00    	imul   $0xf904,%eax,%eax
  4016ea:	89 44 24 24          	mov    %eax,0x24(%rsp)
  4016ee:	8b 44 24 20          	mov    0x20(%rsp),%eax
  4016f2:	69 c0 8b b7 00 00    	imul   $0xb78b,%eax,%eax
  4016f8:	89 44 24 20          	mov    %eax,0x20(%rsp)
  4016fc:	8b 44 24 18          	mov    0x18(%rsp),%eax
  401700:	69 c0 89 0c 00 00    	imul   $0xc89,%eax,%eax
  401706:	89 44 24 18          	mov    %eax,0x18(%rsp)
  40170a:	8b 44 24 14          	mov    0x14(%rsp),%eax
  40170e:	69 c0 40 83 00 00    	imul   $0x8340,%eax,%eax
  401714:	89 44 24 14          	mov    %eax,0x14(%rsp)
  401718:	8b 44 24 14          	mov    0x14(%rsp),%eax
  40171c:	69 c0 f8 84 00 00    	imul   $0x84f8,%eax,%eax
  401722:	89 44 24 14          	mov    %eax,0x14(%rsp)
  401726:	8b 44 24 14          	mov    0x14(%rsp),%eax
  40172a:	69 c0 62 29 00 00    	imul   $0x2962,%eax,%eax
  401730:	89 44 24 14          	mov    %eax,0x14(%rsp)
  401734:	8b 44 24 18          	mov    0x18(%rsp),%eax
  401738:	69 c0 bc f5 00 00    	imul   $0xf5bc,%eax,%eax
  40173e:	89 44 24 18          	mov    %eax,0x18(%rsp)
  401742:	8b 44 24 08          	mov    0x8(%rsp),%eax
  401746:	69 c0 2f 59 00 00    	imul   $0x592f,%eax,%eax
  40174c:	89 44 24 08          	mov    %eax,0x8(%rsp)
  401750:	8b 44 24 20          	mov    0x20(%rsp),%eax
  401754:	69 c0 d4 bc 00 00    	imul   $0xbcd4,%eax,%eax
  40175a:	89 44 24 20          	mov    %eax,0x20(%rsp)
  40175e:	8b 04 24             	mov    (%rsp),%eax
  401761:	69 c0 0d 0c 00 00    	imul   $0xc0d,%eax,%eax
  401767:	89 04 24             	mov    %eax,(%rsp)
  40176a:	8b 04 24             	mov    (%rsp),%eax
  40176d:	69 c0 ab f0 00 00    	imul   $0xf0ab,%eax,%eax
  401773:	89 04 24             	mov    %eax,(%rsp)
  401776:	8b 44 24 20          	mov    0x20(%rsp),%eax
  40177a:	69 c0 07 0f 00 00    	imul   $0xf07,%eax,%eax
  401780:	89 44 24 20          	mov    %eax,0x20(%rsp)
  401784:	8b 44 24 10          	mov    0x10(%rsp),%eax
  401788:	69 c0 64 69 00 00    	imul   $0x6964,%eax,%eax
  40178e:	89 44 24 10          	mov    %eax,0x10(%rsp)
  401792:	8b 44 24 18          	mov    0x18(%rsp),%eax
  401796:	69 c0 fd 1b 00 00    	imul   $0x1bfd,%eax,%eax
  40179c:	89 44 24 18          	mov    %eax,0x18(%rsp)
  4017a0:	8b 44 24 1c          	mov    0x1c(%rsp),%eax
  4017a4:	69 c0 23 9c 00 00    	imul   $0x9c23,%eax,%eax
  4017aa:	89 44 24 1c          	mov    %eax,0x1c(%rsp)
  4017ae:	8b 04 24             	mov    (%rsp),%eax
  4017b1:	69 c0 cf 14 00 00    	imul   $0x14cf,%eax,%eax
  4017b7:	89 04 24             	mov    %eax,(%rsp)
  4017ba:	8b 44 24 08          	mov    0x8(%rsp),%eax
  4017be:	69 c0 b2 de 00 00    	imul   $0xdeb2,%eax,%eax
  4017c4:	89 44 24 08          	mov    %eax,0x8(%rsp)
  4017c8:	8b 44 24 04          	mov    0x4(%rsp),%eax
  4017cc:	69 c0 1c a9 00 00    	imul   $0xa91c,%eax,%eax
  4017d2:	89 44 24 04          	mov    %eax,0x4(%rsp)
  4017d6:	8b 44 24 18          	mov    0x18(%rsp),%eax
  4017da:	69 c0 40 2b 00 00    	imul   $0x2b40,%eax,%eax
  4017e0:	89 44 24 18          	mov    %eax,0x18(%rsp)
  4017e4:	8b 04 24             	mov    (%rsp),%eax
  4017e7:	69 c0 a6 8e 00 00    	imul   $0x8ea6,%eax,%eax
  4017ed:	89 04 24             	mov    %eax,(%rsp)
  4017f0:	8b 04 24             	mov    (%rsp),%eax
  4017f3:	69 c0 e4 5e 00 00    	imul   $0x5ee4,%eax,%eax
  4017f9:	89 04 24             	mov    %eax,(%rsp)
  4017fc:	8b 44 24 20          	mov    0x20(%rsp),%eax
  401800:	69 c0 90 e2 00 00    	imul   $0xe290,%eax,%eax
  401806:	89 44 24 20          	mov    %eax,0x20(%rsp)
  40180a:	8b 44 24 0c          	mov    0xc(%rsp),%eax
  40180e:	69 c0 3e 7f 00 00    	imul   $0x7f3e,%eax,%eax
  401814:	89 44 24 0c          	mov    %eax,0xc(%rsp)
  401818:	8b 44 24 08          	mov    0x8(%rsp),%eax
  40181c:	69 c0 3a c3 00 00    	imul   $0xc33a,%eax,%eax
  401822:	89 44 24 08          	mov    %eax,0x8(%rsp)
  401826:	8b 44 24 20          	mov    0x20(%rsp),%eax
  40182a:	69 c0 0a c4 00 00    	imul   $0xc40a,%eax,%eax
  401830:	89 44 24 20          	mov    %eax,0x20(%rsp)
  401834:	8b 44 24 04          	mov    0x4(%rsp),%eax
  401838:	69 c0 49 10 00 00    	imul   $0x1049,%eax,%eax
  40183e:	89 44 24 04          	mov    %eax,0x4(%rsp)
  401842:	8b 44 24 10          	mov    0x10(%rsp),%eax
  401846:	69 c0 a8 e0 00 00    	imul   $0xe0a8,%eax,%eax
  40184c:	89 44 24 10          	mov    %eax,0x10(%rsp)
  401850:	8b 44 24 18          	mov    0x18(%rsp),%eax
  401854:	69 c0 4d 60 00 00    	imul   $0x604d,%eax,%eax
  40185a:	89 44 24 18          	mov    %eax,0x18(%rsp)
  40185e:	8b 44 24 18          	mov    0x18(%rsp),%eax
  401862:	69 c0 65 5d 00 00    	imul   $0x5d65,%eax,%eax
  401868:	89 44 24 18          	mov    %eax,0x18(%rsp)
  40186c:	ba 00 00 00 00       	mov    $0x0,%edx
  401871:	b8 00 00 00 00       	mov    $0x0,%eax
  401876:	eb 0a                	jmp    401882 <scramble+0x4f3>
  401878:	89 d1                	mov    %edx,%ecx
  40187a:	8b 0c 8c             	mov    (%rsp,%rcx,4),%ecx
  40187d:	01 c8                	add    %ecx,%eax
  40187f:	83 c2 01             	add    $0x1,%edx
  401882:	83 fa 09             	cmp    $0x9,%edx
  401885:	76 f1                	jbe    401878 <scramble+0x4e9>
  401887:	48 8b 74 24 28       	mov    0x28(%rsp),%rsi
  40188c:	64 48 33 34 25 28 00 	xor    %fs:0x28,%rsi
  401893:	00 00 
  401895:	74 05                	je     40189c <scramble+0x50d>
  401897:	e8 54 f4 ff ff       	callq  400cf0 <__stack_chk_fail@plt>
  40189c:	48 83 c4 38          	add    $0x38,%rsp
  4018a0:	c3                   	retq   

00000000004018a1 <getbuf>:
  4018a1:	48 83 ec 38          	sub    $0x38,%rsp
  4018a5:	48 89 e7             	mov    %rsp,%rdi
  4018a8:	e8 7e 02 00 00       	callq  401b2b <Gets>
  4018ad:	b8 01 00 00 00       	mov    $0x1,%eax
  4018b2:	48 83 c4 38          	add    $0x38,%rsp
  4018b6:	c3                   	retq   

00000000004018b7 <touch1>:
  4018b7:	48 83 ec 08          	sub    $0x8,%rsp
  4018bb:	c7 05 57 3c 20 00 01 	movl   $0x1,0x203c57(%rip)        # 60551c <vlevel>
  4018c2:	00 00 00 
  4018c5:	bf 43 32 40 00       	mov    $0x403243,%edi
  4018ca:	e8 01 f4 ff ff       	callq  400cd0 <puts@plt>
  4018cf:	bf 01 00 00 00       	mov    $0x1,%edi
  4018d4:	e8 97 04 00 00       	callq  401d70 <validate>
  4018d9:	bf 00 00 00 00       	mov    $0x0,%edi
  4018de:	e8 6d f5 ff ff       	callq  400e50 <exit@plt>

00000000004018e3 <touch2>:
  4018e3:	48 83 ec 08          	sub    $0x8,%rsp
  4018e7:	89 fa                	mov    %edi,%edx
  4018e9:	c7 05 29 3c 20 00 02 	movl   $0x2,0x203c29(%rip)        # 60551c <vlevel>
  4018f0:	00 00 00 
  4018f3:	39 3d 2b 3c 20 00    	cmp    %edi,0x203c2b(%rip)        # 605524 <cookie>
  4018f9:	74 28                	je     401923 <touch2+0x40>
  4018fb:	be 90 32 40 00       	mov    $0x403290,%esi
  401900:	bf 01 00 00 00       	mov    $0x1,%edi
  401905:	b8 00 00 00 00       	mov    $0x0,%eax
  40190a:	e8 f1 f4 ff ff       	callq  400e00 <__printf_chk@plt>
  40190f:	bf 02 00 00 00       	mov    $0x2,%edi
  401914:	e8 19 05 00 00       	callq  401e32 <fail>
  401919:	bf 00 00 00 00       	mov    $0x0,%edi
  40191e:	e8 2d f5 ff ff       	callq  400e50 <exit@plt>
  401923:	be 68 32 40 00       	mov    $0x403268,%esi
  401928:	bf 01 00 00 00       	mov    $0x1,%edi
  40192d:	b8 00 00 00 00       	mov    $0x0,%eax
  401932:	e8 c9 f4 ff ff       	callq  400e00 <__printf_chk@plt>
  401937:	bf 02 00 00 00       	mov    $0x2,%edi
  40193c:	e8 2f 04 00 00       	callq  401d70 <validate>
  401941:	eb d6                	jmp    401919 <touch2+0x36>

0000000000401943 <hexmatch>:
  401943:	41 54                	push   %r12
  401945:	55                   	push   %rbp
  401946:	53                   	push   %rbx
  401947:	48 83 c4 80          	add    $0xffffffffffffff80,%rsp
  40194b:	89 fd                	mov    %edi,%ebp
  40194d:	48 89 f3             	mov    %rsi,%rbx
  401950:	64 48 8b 04 25 28 00 	mov    %fs:0x28,%rax
  401957:	00 00 
  401959:	48 89 44 24 78       	mov    %rax,0x78(%rsp)
  40195e:	31 c0                	xor    %eax,%eax
  401960:	e8 5b f4 ff ff       	callq  400dc0 <random@plt>
  401965:	48 89 c1             	mov    %rax,%rcx
  401968:	48 ba 0b d7 a3 70 3d 	movabs $0xa3d70a3d70a3d70b,%rdx
  40196f:	0a d7 a3 
  401972:	48 f7 ea             	imul   %rdx
  401975:	48 01 ca             	add    %rcx,%rdx
  401978:	48 c1 fa 06          	sar    $0x6,%rdx
  40197c:	48 89 c8             	mov    %rcx,%rax
  40197f:	48 c1 f8 3f          	sar    $0x3f,%rax
  401983:	48 29 c2             	sub    %rax,%rdx
  401986:	48 8d 04 92          	lea    (%rdx,%rdx,4),%rax
  40198a:	48 8d 14 80          	lea    (%rax,%rax,4),%rdx
  40198e:	48 8d 04 95 00 00 00 	lea    0x0(,%rdx,4),%rax
  401995:	00 
  401996:	48 29 c1             	sub    %rax,%rcx
  401999:	4c 8d 24 0c          	lea    (%rsp,%rcx,1),%r12
  40199d:	41 89 e8             	mov    %ebp,%r8d
  4019a0:	b9 60 32 40 00       	mov    $0x403260,%ecx
  4019a5:	48 c7 c2 ff ff ff ff 	mov    $0xffffffffffffffff,%rdx
  4019ac:	be 01 00 00 00       	mov    $0x1,%esi
  4019b1:	4c 89 e7             	mov    %r12,%rdi
  4019b4:	b8 00 00 00 00       	mov    $0x0,%eax
  4019b9:	e8 c2 f4 ff ff       	callq  400e80 <__sprintf_chk@plt>
  4019be:	ba 09 00 00 00       	mov    $0x9,%edx
  4019c3:	4c 89 e6             	mov    %r12,%rsi
  4019c6:	48 89 df             	mov    %rbx,%rdi
  4019c9:	e8 e2 f2 ff ff       	callq  400cb0 <strncmp@plt>
  4019ce:	85 c0                	test   %eax,%eax
  4019d0:	0f 94 c0             	sete   %al
  4019d3:	48 8b 5c 24 78       	mov    0x78(%rsp),%rbx
  4019d8:	64 48 33 1c 25 28 00 	xor    %fs:0x28,%rbx
  4019df:	00 00 
  4019e1:	75 0c                	jne    4019ef <hexmatch+0xac>
  4019e3:	0f b6 c0             	movzbl %al,%eax
  4019e6:	48 83 ec 80          	sub    $0xffffffffffffff80,%rsp
  4019ea:	5b                   	pop    %rbx
  4019eb:	5d                   	pop    %rbp
  4019ec:	41 5c                	pop    %r12
  4019ee:	c3                   	retq   
  4019ef:	e8 fc f2 ff ff       	callq  400cf0 <__stack_chk_fail@plt>

00000000004019f4 <touch3>:
  4019f4:	53                   	push   %rbx
  4019f5:	48 89 fb             	mov    %rdi,%rbx
  4019f8:	c7 05 1a 3b 20 00 03 	movl   $0x3,0x203b1a(%rip)        # 60551c <vlevel>
  4019ff:	00 00 00 
  401a02:	48 89 fe             	mov    %rdi,%rsi
  401a05:	8b 3d 19 3b 20 00    	mov    0x203b19(%rip),%edi        # 605524 <cookie>
  401a0b:	e8 33 ff ff ff       	callq  401943 <hexmatch>
  401a10:	85 c0                	test   %eax,%eax
  401a12:	74 2b                	je     401a3f <touch3+0x4b>
  401a14:	48 89 da             	mov    %rbx,%rdx
  401a17:	be b8 32 40 00       	mov    $0x4032b8,%esi
  401a1c:	bf 01 00 00 00       	mov    $0x1,%edi
  401a21:	b8 00 00 00 00       	mov    $0x0,%eax
  401a26:	e8 d5 f3 ff ff       	callq  400e00 <__printf_chk@plt>
  401a2b:	bf 03 00 00 00       	mov    $0x3,%edi
  401a30:	e8 3b 03 00 00       	callq  401d70 <validate>
  401a35:	bf 00 00 00 00       	mov    $0x0,%edi
  401a3a:	e8 11 f4 ff ff       	callq  400e50 <exit@plt>
  401a3f:	48 89 da             	mov    %rbx,%rdx
  401a42:	be e0 32 40 00       	mov    $0x4032e0,%esi
  401a47:	bf 01 00 00 00       	mov    $0x1,%edi
  401a4c:	b8 00 00 00 00       	mov    $0x0,%eax
  401a51:	e8 aa f3 ff ff       	callq  400e00 <__printf_chk@plt>
  401a56:	bf 03 00 00 00       	mov    $0x3,%edi
  401a5b:	e8 d2 03 00 00       	callq  401e32 <fail>
  401a60:	eb d3                	jmp    401a35 <touch3+0x41>

0000000000401a62 <test>:
  401a62:	48 83 ec 08          	sub    $0x8,%rsp
  401a66:	b8 00 00 00 00       	mov    $0x0,%eax
  401a6b:	e8 31 fe ff ff       	callq  4018a1 <getbuf>
  401a70:	89 c2                	mov    %eax,%edx
  401a72:	be 08 33 40 00       	mov    $0x403308,%esi
  401a77:	bf 01 00 00 00       	mov    $0x1,%edi
  401a7c:	b8 00 00 00 00       	mov    $0x0,%eax
  401a81:	e8 7a f3 ff ff       	callq  400e00 <__printf_chk@plt>
  401a86:	48 83 c4 08          	add    $0x8,%rsp
  401a8a:	c3                   	retq   

0000000000401a8b <save_char>:
  401a8b:	8b 05 b3 46 20 00    	mov    0x2046b3(%rip),%eax        # 606144 <gets_cnt>
  401a91:	3d ff 03 00 00       	cmp    $0x3ff,%eax
  401a96:	7f 49                	jg     401ae1 <save_char+0x56>
  401a98:	8d 14 40             	lea    (%rax,%rax,2),%edx
  401a9b:	89 f9                	mov    %edi,%ecx
  401a9d:	c0 e9 04             	shr    $0x4,%cl
  401aa0:	83 e1 0f             	and    $0xf,%ecx
  401aa3:	0f b6 b1 30 36 40 00 	movzbl 0x403630(%rcx),%esi
  401aaa:	48 63 ca             	movslq %edx,%rcx
  401aad:	40 88 b1 40 55 60 00 	mov    %sil,0x605540(%rcx)
  401ab4:	8d 4a 01             	lea    0x1(%rdx),%ecx
  401ab7:	83 e7 0f             	and    $0xf,%edi
  401aba:	0f b6 b7 30 36 40 00 	movzbl 0x403630(%rdi),%esi
  401ac1:	48 63 c9             	movslq %ecx,%rcx
  401ac4:	40 88 b1 40 55 60 00 	mov    %sil,0x605540(%rcx)
  401acb:	83 c2 02             	add    $0x2,%edx
  401ace:	48 63 d2             	movslq %edx,%rdx
  401ad1:	c6 82 40 55 60 00 20 	movb   $0x20,0x605540(%rdx)
  401ad8:	83 c0 01             	add    $0x1,%eax
  401adb:	89 05 63 46 20 00    	mov    %eax,0x204663(%rip)        # 606144 <gets_cnt>
  401ae1:	f3 c3                	repz retq 

0000000000401ae3 <save_term>:
  401ae3:	8b 05 5b 46 20 00    	mov    0x20465b(%rip),%eax        # 606144 <gets_cnt>
  401ae9:	8d 04 40             	lea    (%rax,%rax,2),%eax
  401aec:	48 98                	cltq   
  401aee:	c6 80 40 55 60 00 00 	movb   $0x0,0x605540(%rax)
  401af5:	c3                   	retq   

0000000000401af6 <check_fail>:
  401af6:	48 83 ec 08          	sub    $0x8,%rsp
  401afa:	0f be 15 47 46 20 00 	movsbl 0x204647(%rip),%edx        # 606148 <target_prefix>
  401b01:	41 b8 40 55 60 00    	mov    $0x605540,%r8d
  401b07:	8b 0d 0b 3a 20 00    	mov    0x203a0b(%rip),%ecx        # 605518 <check_level>
  401b0d:	be 2b 33 40 00       	mov    $0x40332b,%esi
  401b12:	bf 01 00 00 00       	mov    $0x1,%edi
  401b17:	b8 00 00 00 00       	mov    $0x0,%eax
  401b1c:	e8 df f2 ff ff       	callq  400e00 <__printf_chk@plt>
  401b21:	bf 01 00 00 00       	mov    $0x1,%edi
  401b26:	e8 25 f3 ff ff       	callq  400e50 <exit@plt>

0000000000401b2b <Gets>:
  401b2b:	41 54                	push   %r12
  401b2d:	55                   	push   %rbp
  401b2e:	53                   	push   %rbx
  401b2f:	49 89 fc             	mov    %rdi,%r12
  401b32:	c7 05 08 46 20 00 00 	movl   $0x0,0x204608(%rip)        # 606144 <gets_cnt>
  401b39:	00 00 00 
  401b3c:	48 89 fb             	mov    %rdi,%rbx
  401b3f:	eb 11                	jmp    401b52 <Gets+0x27>
  401b41:	48 8d 6b 01          	lea    0x1(%rbx),%rbp
  401b45:	88 03                	mov    %al,(%rbx)
  401b47:	0f b6 f8             	movzbl %al,%edi
  401b4a:	e8 3c ff ff ff       	callq  401a8b <save_char>
  401b4f:	48 89 eb             	mov    %rbp,%rbx
  401b52:	48 8b 3d b7 39 20 00 	mov    0x2039b7(%rip),%rdi        # 605510 <infile>
  401b59:	e8 72 f2 ff ff       	callq  400dd0 <_IO_getc@plt>
  401b5e:	83 f8 ff             	cmp    $0xffffffff,%eax
  401b61:	74 05                	je     401b68 <Gets+0x3d>
  401b63:	83 f8 0a             	cmp    $0xa,%eax
  401b66:	75 d9                	jne    401b41 <Gets+0x16>
  401b68:	c6 03 00             	movb   $0x0,(%rbx)
  401b6b:	b8 00 00 00 00       	mov    $0x0,%eax
  401b70:	e8 6e ff ff ff       	callq  401ae3 <save_term>
  401b75:	4c 89 e0             	mov    %r12,%rax
  401b78:	5b                   	pop    %rbx
  401b79:	5d                   	pop    %rbp
  401b7a:	41 5c                	pop    %r12
  401b7c:	c3                   	retq   

0000000000401b7d <notify_server>:
  401b7d:	53                   	push   %rbx
  401b7e:	48 81 ec 10 40 00 00 	sub    $0x4010,%rsp
  401b85:	64 48 8b 04 25 28 00 	mov    %fs:0x28,%rax
  401b8c:	00 00 
  401b8e:	48 89 84 24 08 40 00 	mov    %rax,0x4008(%rsp)
  401b95:	00 
  401b96:	31 c0                	xor    %eax,%eax
  401b98:	83 3d 89 39 20 00 00 	cmpl   $0x0,0x203989(%rip)        # 605528 <is_checker>
  401b9f:	0f 85 aa 01 00 00    	jne    401d4f <notify_server+0x1d2>
  401ba5:	89 fb                	mov    %edi,%ebx
  401ba7:	8b 05 97 45 20 00    	mov    0x204597(%rip),%eax        # 606144 <gets_cnt>
  401bad:	83 c0 64             	add    $0x64,%eax
  401bb0:	3d 00 20 00 00       	cmp    $0x2000,%eax
  401bb5:	7e 1e                	jle    401bd5 <notify_server+0x58>
  401bb7:	be 60 34 40 00       	mov    $0x403460,%esi
  401bbc:	bf 01 00 00 00       	mov    $0x1,%edi
  401bc1:	b8 00 00 00 00       	mov    $0x0,%eax
  401bc6:	e8 35 f2 ff ff       	callq  400e00 <__printf_chk@plt>
  401bcb:	bf 01 00 00 00       	mov    $0x1,%edi
  401bd0:	e8 7b f2 ff ff       	callq  400e50 <exit@plt>
  401bd5:	0f be 05 6c 45 20 00 	movsbl 0x20456c(%rip),%eax        # 606148 <target_prefix>
  401bdc:	83 3d c5 38 20 00 00 	cmpl   $0x0,0x2038c5(%rip)        # 6054a8 <notify>
  401be3:	74 08                	je     401bed <notify_server+0x70>
  401be5:	8b 15 35 39 20 00    	mov    0x203935(%rip),%edx        # 605520 <authkey>
  401beb:	eb 05                	jmp    401bf2 <notify_server+0x75>
  401bed:	ba ff ff ff ff       	mov    $0xffffffff,%edx
  401bf2:	85 db                	test   %ebx,%ebx
  401bf4:	74 08                	je     401bfe <notify_server+0x81>
  401bf6:	41 b9 41 33 40 00    	mov    $0x403341,%r9d
  401bfc:	eb 06                	jmp    401c04 <notify_server+0x87>
  401bfe:	41 b9 46 33 40 00    	mov    $0x403346,%r9d
  401c04:	68 40 55 60 00       	pushq  $0x605540
  401c09:	56                   	push   %rsi
  401c0a:	50                   	push   %rax
  401c0b:	52                   	push   %rdx
  401c0c:	44 8b 05 55 35 20 00 	mov    0x203555(%rip),%r8d        # 605168 <target_id>
  401c13:	b9 4b 33 40 00       	mov    $0x40334b,%ecx
  401c18:	ba 00 20 00 00       	mov    $0x2000,%edx
  401c1d:	be 01 00 00 00       	mov    $0x1,%esi
  401c22:	48 8d 7c 24 20       	lea    0x20(%rsp),%rdi
  401c27:	b8 00 00 00 00       	mov    $0x0,%eax
  401c2c:	e8 4f f2 ff ff       	callq  400e80 <__sprintf_chk@plt>
  401c31:	48 83 c4 20          	add    $0x20,%rsp
  401c35:	83 3d 6c 38 20 00 00 	cmpl   $0x0,0x20386c(%rip)        # 6054a8 <notify>
  401c3c:	0f 84 81 00 00 00    	je     401cc3 <notify_server+0x146>
  401c42:	85 db                	test   %ebx,%ebx
  401c44:	74 6e                	je     401cb4 <notify_server+0x137>
  401c46:	4c 8d 8c 24 00 20 00 	lea    0x2000(%rsp),%r9
  401c4d:	00 
  401c4e:	41 b8 00 00 00 00    	mov    $0x0,%r8d
  401c54:	48 89 e1             	mov    %rsp,%rcx
  401c57:	48 8b 15 12 35 20 00 	mov    0x203512(%rip),%rdx        # 605170 <lab>
  401c5e:	48 8b 35 13 35 20 00 	mov    0x203513(%rip),%rsi        # 605178 <course>
  401c65:	48 8b 3d f4 34 20 00 	mov    0x2034f4(%rip),%rdi        # 605160 <user_id>
  401c6c:	e8 44 11 00 00       	callq  402db5 <driver_post>
  401c71:	85 c0                	test   %eax,%eax
  401c73:	79 26                	jns    401c9b <notify_server+0x11e>
  401c75:	48 8d 94 24 00 20 00 	lea    0x2000(%rsp),%rdx
  401c7c:	00 
  401c7d:	be 67 33 40 00       	mov    $0x403367,%esi
  401c82:	bf 01 00 00 00       	mov    $0x1,%edi
  401c87:	b8 00 00 00 00       	mov    $0x0,%eax
  401c8c:	e8 6f f1 ff ff       	callq  400e00 <__printf_chk@plt>
  401c91:	bf 01 00 00 00       	mov    $0x1,%edi
  401c96:	e8 b5 f1 ff ff       	callq  400e50 <exit@plt>
  401c9b:	bf 90 34 40 00       	mov    $0x403490,%edi
  401ca0:	e8 2b f0 ff ff       	callq  400cd0 <puts@plt>
  401ca5:	bf 73 33 40 00       	mov    $0x403373,%edi
  401caa:	e8 21 f0 ff ff       	callq  400cd0 <puts@plt>
  401caf:	e9 9b 00 00 00       	jmpq   401d4f <notify_server+0x1d2>
  401cb4:	bf 7d 33 40 00       	mov    $0x40337d,%edi
  401cb9:	e8 12 f0 ff ff       	callq  400cd0 <puts@plt>
  401cbe:	e9 8c 00 00 00       	jmpq   401d4f <notify_server+0x1d2>
  401cc3:	85 db                	test   %ebx,%ebx
  401cc5:	74 07                	je     401cce <notify_server+0x151>
  401cc7:	ba 41 33 40 00       	mov    $0x403341,%edx
  401ccc:	eb 05                	jmp    401cd3 <notify_server+0x156>
  401cce:	ba 46 33 40 00       	mov    $0x403346,%edx
  401cd3:	be c8 34 40 00       	mov    $0x4034c8,%esi
  401cd8:	bf 01 00 00 00       	mov    $0x1,%edi
  401cdd:	b8 00 00 00 00       	mov    $0x0,%eax
  401ce2:	e8 19 f1 ff ff       	callq  400e00 <__printf_chk@plt>
  401ce7:	48 8b 15 72 34 20 00 	mov    0x203472(%rip),%rdx        # 605160 <user_id>
  401cee:	be 84 33 40 00       	mov    $0x403384,%esi
  401cf3:	bf 01 00 00 00       	mov    $0x1,%edi
  401cf8:	b8 00 00 00 00       	mov    $0x0,%eax
  401cfd:	e8 fe f0 ff ff       	callq  400e00 <__printf_chk@plt>
  401d02:	48 8b 15 6f 34 20 00 	mov    0x20346f(%rip),%rdx        # 605178 <course>
  401d09:	be 91 33 40 00       	mov    $0x403391,%esi
  401d0e:	bf 01 00 00 00       	mov    $0x1,%edi
  401d13:	b8 00 00 00 00       	mov    $0x0,%eax
  401d18:	e8 e3 f0 ff ff       	callq  400e00 <__printf_chk@plt>
  401d1d:	48 8b 15 4c 34 20 00 	mov    0x20344c(%rip),%rdx        # 605170 <lab>
  401d24:	be 9d 33 40 00       	mov    $0x40339d,%esi
  401d29:	bf 01 00 00 00       	mov    $0x1,%edi
  401d2e:	b8 00 00 00 00       	mov    $0x0,%eax
  401d33:	e8 c8 f0 ff ff       	callq  400e00 <__printf_chk@plt>
  401d38:	48 89 e2             	mov    %rsp,%rdx
  401d3b:	be a6 33 40 00       	mov    $0x4033a6,%esi
  401d40:	bf 01 00 00 00       	mov    $0x1,%edi
  401d45:	b8 00 00 00 00       	mov    $0x0,%eax
  401d4a:	e8 b1 f0 ff ff       	callq  400e00 <__printf_chk@plt>
  401d4f:	48 8b 84 24 08 40 00 	mov    0x4008(%rsp),%rax
  401d56:	00 
  401d57:	64 48 33 04 25 28 00 	xor    %fs:0x28,%rax
  401d5e:	00 00 
  401d60:	74 05                	je     401d67 <notify_server+0x1ea>
  401d62:	e8 89 ef ff ff       	callq  400cf0 <__stack_chk_fail@plt>
  401d67:	48 81 c4 10 40 00 00 	add    $0x4010,%rsp
  401d6e:	5b                   	pop    %rbx
  401d6f:	c3                   	retq   

0000000000401d70 <validate>:
  401d70:	53                   	push   %rbx
  401d71:	89 fb                	mov    %edi,%ebx
  401d73:	83 3d ae 37 20 00 00 	cmpl   $0x0,0x2037ae(%rip)        # 605528 <is_checker>
  401d7a:	74 6b                	je     401de7 <validate+0x77>
  401d7c:	39 3d 9a 37 20 00    	cmp    %edi,0x20379a(%rip)        # 60551c <vlevel>
  401d82:	74 14                	je     401d98 <validate+0x28>
  401d84:	bf b2 33 40 00       	mov    $0x4033b2,%edi
  401d89:	e8 42 ef ff ff       	callq  400cd0 <puts@plt>
  401d8e:	b8 00 00 00 00       	mov    $0x0,%eax
  401d93:	e8 5e fd ff ff       	callq  401af6 <check_fail>
  401d98:	8b 15 7a 37 20 00    	mov    0x20377a(%rip),%edx        # 605518 <check_level>
  401d9e:	39 d7                	cmp    %edx,%edi
  401da0:	74 20                	je     401dc2 <validate+0x52>
  401da2:	89 f9                	mov    %edi,%ecx
  401da4:	be f0 34 40 00       	mov    $0x4034f0,%esi
  401da9:	bf 01 00 00 00       	mov    $0x1,%edi
  401dae:	b8 00 00 00 00       	mov    $0x0,%eax
  401db3:	e8 48 f0 ff ff       	callq  400e00 <__printf_chk@plt>
  401db8:	b8 00 00 00 00       	mov    $0x0,%eax
  401dbd:	e8 34 fd ff ff       	callq  401af6 <check_fail>
  401dc2:	0f be 15 7f 43 20 00 	movsbl 0x20437f(%rip),%edx        # 606148 <target_prefix>
  401dc9:	41 b8 40 55 60 00    	mov    $0x605540,%r8d
  401dcf:	89 f9                	mov    %edi,%ecx
  401dd1:	be d0 33 40 00       	mov    $0x4033d0,%esi
  401dd6:	bf 01 00 00 00       	mov    $0x1,%edi
  401ddb:	b8 00 00 00 00       	mov    $0x0,%eax
  401de0:	e8 1b f0 ff ff       	callq  400e00 <__printf_chk@plt>
  401de5:	eb 49                	jmp    401e30 <validate+0xc0>
  401de7:	3b 3d 2f 37 20 00    	cmp    0x20372f(%rip),%edi        # 60551c <vlevel>
  401ded:	74 18                	je     401e07 <validate+0x97>
  401def:	bf b2 33 40 00       	mov    $0x4033b2,%edi
  401df4:	e8 d7 ee ff ff       	callq  400cd0 <puts@plt>
  401df9:	89 de                	mov    %ebx,%esi
  401dfb:	bf 00 00 00 00       	mov    $0x0,%edi
  401e00:	e8 78 fd ff ff       	callq  401b7d <notify_server>
  401e05:	eb 29                	jmp    401e30 <validate+0xc0>
  401e07:	0f be 0d 3a 43 20 00 	movsbl 0x20433a(%rip),%ecx        # 606148 <target_prefix>
  401e0e:	89 fa                	mov    %edi,%edx
  401e10:	be 18 35 40 00       	mov    $0x403518,%esi
  401e15:	bf 01 00 00 00       	mov    $0x1,%edi
  401e1a:	b8 00 00 00 00       	mov    $0x0,%eax
  401e1f:	e8 dc ef ff ff       	callq  400e00 <__printf_chk@plt>
  401e24:	89 de                	mov    %ebx,%esi
  401e26:	bf 01 00 00 00       	mov    $0x1,%edi
  401e2b:	e8 4d fd ff ff       	callq  401b7d <notify_server>
  401e30:	5b                   	pop    %rbx
  401e31:	c3                   	retq   

0000000000401e32 <fail>:
  401e32:	48 83 ec 08          	sub    $0x8,%rsp
  401e36:	83 3d eb 36 20 00 00 	cmpl   $0x0,0x2036eb(%rip)        # 605528 <is_checker>
  401e3d:	74 0a                	je     401e49 <fail+0x17>
  401e3f:	b8 00 00 00 00       	mov    $0x0,%eax
  401e44:	e8 ad fc ff ff       	callq  401af6 <check_fail>
  401e49:	89 fe                	mov    %edi,%esi
  401e4b:	bf 00 00 00 00       	mov    $0x0,%edi
  401e50:	e8 28 fd ff ff       	callq  401b7d <notify_server>
  401e55:	48 83 c4 08          	add    $0x8,%rsp
  401e59:	c3                   	retq   

0000000000401e5a <bushandler>:
  401e5a:	48 83 ec 08          	sub    $0x8,%rsp
  401e5e:	83 3d c3 36 20 00 00 	cmpl   $0x0,0x2036c3(%rip)        # 605528 <is_checker>
  401e65:	74 14                	je     401e7b <bushandler+0x21>
  401e67:	bf e5 33 40 00       	mov    $0x4033e5,%edi
  401e6c:	e8 5f ee ff ff       	callq  400cd0 <puts@plt>
  401e71:	b8 00 00 00 00       	mov    $0x0,%eax
  401e76:	e8 7b fc ff ff       	callq  401af6 <check_fail>
  401e7b:	bf 50 35 40 00       	mov    $0x403550,%edi
  401e80:	e8 4b ee ff ff       	callq  400cd0 <puts@plt>
  401e85:	bf ef 33 40 00       	mov    $0x4033ef,%edi
  401e8a:	e8 41 ee ff ff       	callq  400cd0 <puts@plt>
  401e8f:	be 00 00 00 00       	mov    $0x0,%esi
  401e94:	bf 00 00 00 00       	mov    $0x0,%edi
  401e99:	e8 df fc ff ff       	callq  401b7d <notify_server>
  401e9e:	bf 01 00 00 00       	mov    $0x1,%edi
  401ea3:	e8 a8 ef ff ff       	callq  400e50 <exit@plt>

0000000000401ea8 <seghandler>:
  401ea8:	48 83 ec 08          	sub    $0x8,%rsp
  401eac:	83 3d 75 36 20 00 00 	cmpl   $0x0,0x203675(%rip)        # 605528 <is_checker>
  401eb3:	74 14                	je     401ec9 <seghandler+0x21>
  401eb5:	bf 05 34 40 00       	mov    $0x403405,%edi
  401eba:	e8 11 ee ff ff       	callq  400cd0 <puts@plt>
  401ebf:	b8 00 00 00 00       	mov    $0x0,%eax
  401ec4:	e8 2d fc ff ff       	callq  401af6 <check_fail>
  401ec9:	bf 70 35 40 00       	mov    $0x403570,%edi
  401ece:	e8 fd ed ff ff       	callq  400cd0 <puts@plt>
  401ed3:	bf ef 33 40 00       	mov    $0x4033ef,%edi
  401ed8:	e8 f3 ed ff ff       	callq  400cd0 <puts@plt>
  401edd:	be 00 00 00 00       	mov    $0x0,%esi
  401ee2:	bf 00 00 00 00       	mov    $0x0,%edi
  401ee7:	e8 91 fc ff ff       	callq  401b7d <notify_server>
  401eec:	bf 01 00 00 00       	mov    $0x1,%edi
  401ef1:	e8 5a ef ff ff       	callq  400e50 <exit@plt>

0000000000401ef6 <illegalhandler>:
  401ef6:	48 83 ec 08          	sub    $0x8,%rsp
  401efa:	83 3d 27 36 20 00 00 	cmpl   $0x0,0x203627(%rip)        # 605528 <is_checker>
  401f01:	74 14                	je     401f17 <illegalhandler+0x21>
  401f03:	bf 18 34 40 00       	mov    $0x403418,%edi
  401f08:	e8 c3 ed ff ff       	callq  400cd0 <puts@plt>
  401f0d:	b8 00 00 00 00       	mov    $0x0,%eax
  401f12:	e8 df fb ff ff       	callq  401af6 <check_fail>
  401f17:	bf 98 35 40 00       	mov    $0x403598,%edi
  401f1c:	e8 af ed ff ff       	callq  400cd0 <puts@plt>
  401f21:	bf ef 33 40 00       	mov    $0x4033ef,%edi
  401f26:	e8 a5 ed ff ff       	callq  400cd0 <puts@plt>
  401f2b:	be 00 00 00 00       	mov    $0x0,%esi
  401f30:	bf 00 00 00 00       	mov    $0x0,%edi
  401f35:	e8 43 fc ff ff       	callq  401b7d <notify_server>
  401f3a:	bf 01 00 00 00       	mov    $0x1,%edi
  401f3f:	e8 0c ef ff ff       	callq  400e50 <exit@plt>

0000000000401f44 <sigalrmhandler>:
  401f44:	48 83 ec 08          	sub    $0x8,%rsp
  401f48:	83 3d d9 35 20 00 00 	cmpl   $0x0,0x2035d9(%rip)        # 605528 <is_checker>
  401f4f:	74 14                	je     401f65 <sigalrmhandler+0x21>
  401f51:	bf 2c 34 40 00       	mov    $0x40342c,%edi
  401f56:	e8 75 ed ff ff       	callq  400cd0 <puts@plt>
  401f5b:	b8 00 00 00 00       	mov    $0x0,%eax
  401f60:	e8 91 fb ff ff       	callq  401af6 <check_fail>
  401f65:	ba 05 00 00 00       	mov    $0x5,%edx
  401f6a:	be c8 35 40 00       	mov    $0x4035c8,%esi
  401f6f:	bf 01 00 00 00       	mov    $0x1,%edi
  401f74:	b8 00 00 00 00       	mov    $0x0,%eax
  401f79:	e8 82 ee ff ff       	callq  400e00 <__printf_chk@plt>
  401f7e:	be 00 00 00 00       	mov    $0x0,%esi
  401f83:	bf 00 00 00 00       	mov    $0x0,%edi
  401f88:	e8 f0 fb ff ff       	callq  401b7d <notify_server>
  401f8d:	bf 01 00 00 00       	mov    $0x1,%edi
  401f92:	e8 b9 ee ff ff       	callq  400e50 <exit@plt>

0000000000401f97 <launch>:
  401f97:	55                   	push   %rbp
  401f98:	48 89 e5             	mov    %rsp,%rbp
  401f9b:	48 83 ec 10          	sub    $0x10,%rsp
  401f9f:	48 89 fa             	mov    %rdi,%rdx
  401fa2:	64 48 8b 04 25 28 00 	mov    %fs:0x28,%rax
  401fa9:	00 00 
  401fab:	48 89 45 f8          	mov    %rax,-0x8(%rbp)
  401faf:	31 c0                	xor    %eax,%eax
  401fb1:	48 8d 47 1e          	lea    0x1e(%rdi),%rax
  401fb5:	48 83 e0 f0          	and    $0xfffffffffffffff0,%rax
  401fb9:	48 29 c4             	sub    %rax,%rsp
  401fbc:	48 8d 7c 24 0f       	lea    0xf(%rsp),%rdi
  401fc1:	48 83 e7 f0          	and    $0xfffffffffffffff0,%rdi
  401fc5:	be f4 00 00 00       	mov    $0xf4,%esi
  401fca:	e8 41 ed ff ff       	callq  400d10 <memset@plt>
  401fcf:	48 8b 05 ea 34 20 00 	mov    0x2034ea(%rip),%rax        # 6054c0 <stdin@@GLIBC_2.2.5>
  401fd6:	48 39 05 33 35 20 00 	cmp    %rax,0x203533(%rip)        # 605510 <infile>
  401fdd:	75 14                	jne    401ff3 <launch+0x5c>
  401fdf:	be 34 34 40 00       	mov    $0x403434,%esi
  401fe4:	bf 01 00 00 00       	mov    $0x1,%edi
  401fe9:	b8 00 00 00 00       	mov    $0x0,%eax
  401fee:	e8 0d ee ff ff       	callq  400e00 <__printf_chk@plt>
  401ff3:	c7 05 1f 35 20 00 00 	movl   $0x0,0x20351f(%rip)        # 60551c <vlevel>
  401ffa:	00 00 00 
  401ffd:	b8 00 00 00 00       	mov    $0x0,%eax
  402002:	e8 5b fa ff ff       	callq  401a62 <test>
  402007:	83 3d 1a 35 20 00 00 	cmpl   $0x0,0x20351a(%rip)        # 605528 <is_checker>
  40200e:	74 14                	je     402024 <launch+0x8d>
  402010:	bf 41 34 40 00       	mov    $0x403441,%edi
  402015:	e8 b6 ec ff ff       	callq  400cd0 <puts@plt>
  40201a:	b8 00 00 00 00       	mov    $0x0,%eax
  40201f:	e8 d2 fa ff ff       	callq  401af6 <check_fail>
  402024:	bf 4c 34 40 00       	mov    $0x40344c,%edi
  402029:	e8 a2 ec ff ff       	callq  400cd0 <puts@plt>
  40202e:	48 8b 45 f8          	mov    -0x8(%rbp),%rax
  402032:	64 48 33 04 25 28 00 	xor    %fs:0x28,%rax
  402039:	00 00 
  40203b:	74 05                	je     402042 <launch+0xab>
  40203d:	e8 ae ec ff ff       	callq  400cf0 <__stack_chk_fail@plt>
  402042:	c9                   	leaveq 
  402043:	c3                   	retq   

0000000000402044 <stable_launch>:
  402044:	53                   	push   %rbx
  402045:	48 89 3d bc 34 20 00 	mov    %rdi,0x2034bc(%rip)        # 605508 <global_offset>
  40204c:	41 b9 00 00 00 00    	mov    $0x0,%r9d
  402052:	41 b8 00 00 00 00    	mov    $0x0,%r8d
  402058:	b9 32 01 00 00       	mov    $0x132,%ecx
  40205d:	ba 07 00 00 00       	mov    $0x7,%edx
  402062:	be 00 00 10 00       	mov    $0x100000,%esi
  402067:	bf 00 60 58 55       	mov    $0x55586000,%edi
  40206c:	e8 8f ec ff ff       	callq  400d00 <mmap@plt>
  402071:	48 89 c3             	mov    %rax,%rbx
  402074:	48 3d 00 60 58 55    	cmp    $0x55586000,%rax
  40207a:	74 37                	je     4020b3 <stable_launch+0x6f>
  40207c:	be 00 00 10 00       	mov    $0x100000,%esi
  402081:	48 89 c7             	mov    %rax,%rdi
  402084:	e8 67 ed ff ff       	callq  400df0 <munmap@plt>
  402089:	b9 00 60 58 55       	mov    $0x55586000,%ecx
  40208e:	ba 00 36 40 00       	mov    $0x403600,%edx
  402093:	be 01 00 00 00       	mov    $0x1,%esi
  402098:	48 8b 3d 41 34 20 00 	mov    0x203441(%rip),%rdi        # 6054e0 <stderr@@GLIBC_2.2.5>
  40209f:	b8 00 00 00 00       	mov    $0x0,%eax
  4020a4:	e8 c7 ed ff ff       	callq  400e70 <__fprintf_chk@plt>
  4020a9:	bf 01 00 00 00       	mov    $0x1,%edi
  4020ae:	e8 9d ed ff ff       	callq  400e50 <exit@plt>
  4020b3:	48 8d 90 f8 ff 0f 00 	lea    0xffff8(%rax),%rdx
  4020ba:	48 89 15 8f 40 20 00 	mov    %rdx,0x20408f(%rip)        # 606150 <stack_top>
  4020c1:	48 89 e0             	mov    %rsp,%rax
  4020c4:	48 89 d4             	mov    %rdx,%rsp
  4020c7:	48 89 c2             	mov    %rax,%rdx
  4020ca:	48 89 15 2f 34 20 00 	mov    %rdx,0x20342f(%rip)        # 605500 <global_save_stack>
  4020d1:	48 8b 3d 30 34 20 00 	mov    0x203430(%rip),%rdi        # 605508 <global_offset>
  4020d8:	e8 ba fe ff ff       	callq  401f97 <launch>
  4020dd:	48 8b 05 1c 34 20 00 	mov    0x20341c(%rip),%rax        # 605500 <global_save_stack>
  4020e4:	48 89 c4             	mov    %rax,%rsp
  4020e7:	be 00 00 10 00       	mov    $0x100000,%esi
  4020ec:	48 89 df             	mov    %rbx,%rdi
  4020ef:	e8 fc ec ff ff       	callq  400df0 <munmap@plt>
  4020f4:	5b                   	pop    %rbx
  4020f5:	c3                   	retq   

00000000004020f6 <rio_readinitb>:
  4020f6:	89 37                	mov    %esi,(%rdi)
  4020f8:	c7 47 04 00 00 00 00 	movl   $0x0,0x4(%rdi)
  4020ff:	48 8d 47 10          	lea    0x10(%rdi),%rax
  402103:	48 89 47 08          	mov    %rax,0x8(%rdi)
  402107:	c3                   	retq   

0000000000402108 <sigalrm_handler>:
  402108:	48 83 ec 08          	sub    $0x8,%rsp
  40210c:	b9 00 00 00 00       	mov    $0x0,%ecx
  402111:	ba 40 36 40 00       	mov    $0x403640,%edx
  402116:	be 01 00 00 00       	mov    $0x1,%esi
  40211b:	48 8b 3d be 33 20 00 	mov    0x2033be(%rip),%rdi        # 6054e0 <stderr@@GLIBC_2.2.5>
  402122:	b8 00 00 00 00       	mov    $0x0,%eax
  402127:	e8 44 ed ff ff       	callq  400e70 <__fprintf_chk@plt>
  40212c:	bf 01 00 00 00       	mov    $0x1,%edi
  402131:	e8 1a ed ff ff       	callq  400e50 <exit@plt>

0000000000402136 <rio_writen>:
  402136:	41 55                	push   %r13
  402138:	41 54                	push   %r12
  40213a:	55                   	push   %rbp
  40213b:	53                   	push   %rbx
  40213c:	48 83 ec 08          	sub    $0x8,%rsp
  402140:	41 89 fc             	mov    %edi,%r12d
  402143:	48 89 f5             	mov    %rsi,%rbp
  402146:	49 89 d5             	mov    %rdx,%r13
  402149:	48 89 d3             	mov    %rdx,%rbx
  40214c:	eb 06                	jmp    402154 <rio_writen+0x1e>
  40214e:	48 29 c3             	sub    %rax,%rbx
  402151:	48 01 c5             	add    %rax,%rbp
  402154:	48 85 db             	test   %rbx,%rbx
  402157:	74 24                	je     40217d <rio_writen+0x47>
  402159:	48 89 da             	mov    %rbx,%rdx
  40215c:	48 89 ee             	mov    %rbp,%rsi
  40215f:	44 89 e7             	mov    %r12d,%edi
  402162:	e8 79 eb ff ff       	callq  400ce0 <write@plt>
  402167:	48 85 c0             	test   %rax,%rax
  40216a:	7f e2                	jg     40214e <rio_writen+0x18>
  40216c:	e8 1f eb ff ff       	callq  400c90 <__errno_location@plt>
  402171:	83 38 04             	cmpl   $0x4,(%rax)
  402174:	75 15                	jne    40218b <rio_writen+0x55>
  402176:	b8 00 00 00 00       	mov    $0x0,%eax
  40217b:	eb d1                	jmp    40214e <rio_writen+0x18>
  40217d:	4c 89 e8             	mov    %r13,%rax
  402180:	48 83 c4 08          	add    $0x8,%rsp
  402184:	5b                   	pop    %rbx
  402185:	5d                   	pop    %rbp
  402186:	41 5c                	pop    %r12
  402188:	41 5d                	pop    %r13
  40218a:	c3                   	retq   
  40218b:	48 c7 c0 ff ff ff ff 	mov    $0xffffffffffffffff,%rax
  402192:	eb ec                	jmp    402180 <rio_writen+0x4a>

0000000000402194 <rio_read>:
  402194:	41 55                	push   %r13
  402196:	41 54                	push   %r12
  402198:	55                   	push   %rbp
  402199:	53                   	push   %rbx
  40219a:	48 83 ec 08          	sub    $0x8,%rsp
  40219e:	48 89 fb             	mov    %rdi,%rbx
  4021a1:	49 89 f5             	mov    %rsi,%r13
  4021a4:	49 89 d4             	mov    %rdx,%r12
  4021a7:	eb 0a                	jmp    4021b3 <rio_read+0x1f>
  4021a9:	e8 e2 ea ff ff       	callq  400c90 <__errno_location@plt>
  4021ae:	83 38 04             	cmpl   $0x4,(%rax)
  4021b1:	75 5c                	jne    40220f <rio_read+0x7b>
  4021b3:	8b 6b 04             	mov    0x4(%rbx),%ebp
  4021b6:	85 ed                	test   %ebp,%ebp
  4021b8:	7f 24                	jg     4021de <rio_read+0x4a>
  4021ba:	48 8d 6b 10          	lea    0x10(%rbx),%rbp
  4021be:	8b 3b                	mov    (%rbx),%edi
  4021c0:	ba 00 20 00 00       	mov    $0x2000,%edx
  4021c5:	48 89 ee             	mov    %rbp,%rsi
  4021c8:	e8 73 eb ff ff       	callq  400d40 <read@plt>
  4021cd:	89 43 04             	mov    %eax,0x4(%rbx)
  4021d0:	85 c0                	test   %eax,%eax
  4021d2:	78 d5                	js     4021a9 <rio_read+0x15>
  4021d4:	85 c0                	test   %eax,%eax
  4021d6:	74 40                	je     402218 <rio_read+0x84>
  4021d8:	48 89 6b 08          	mov    %rbp,0x8(%rbx)
  4021dc:	eb d5                	jmp    4021b3 <rio_read+0x1f>
  4021de:	89 e8                	mov    %ebp,%eax
  4021e0:	4c 39 e0             	cmp    %r12,%rax
  4021e3:	72 03                	jb     4021e8 <rio_read+0x54>
  4021e5:	44 89 e5             	mov    %r12d,%ebp
  4021e8:	4c 63 e5             	movslq %ebp,%r12
  4021eb:	48 8b 73 08          	mov    0x8(%rbx),%rsi
  4021ef:	4c 89 e2             	mov    %r12,%rdx
  4021f2:	4c 89 ef             	mov    %r13,%rdi
  4021f5:	e8 a6 eb ff ff       	callq  400da0 <memcpy@plt>
  4021fa:	4c 01 63 08          	add    %r12,0x8(%rbx)
  4021fe:	29 6b 04             	sub    %ebp,0x4(%rbx)
  402201:	4c 89 e0             	mov    %r12,%rax
  402204:	48 83 c4 08          	add    $0x8,%rsp
  402208:	5b                   	pop    %rbx
  402209:	5d                   	pop    %rbp
  40220a:	41 5c                	pop    %r12
  40220c:	41 5d                	pop    %r13
  40220e:	c3                   	retq   
  40220f:	48 c7 c0 ff ff ff ff 	mov    $0xffffffffffffffff,%rax
  402216:	eb ec                	jmp    402204 <rio_read+0x70>
  402218:	b8 00 00 00 00       	mov    $0x0,%eax
  40221d:	eb e5                	jmp    402204 <rio_read+0x70>

000000000040221f <rio_readlineb>:
  40221f:	41 55                	push   %r13
  402221:	41 54                	push   %r12
  402223:	55                   	push   %rbp
  402224:	53                   	push   %rbx
  402225:	48 83 ec 18          	sub    $0x18,%rsp
  402229:	49 89 fd             	mov    %rdi,%r13
  40222c:	48 89 f5             	mov    %rsi,%rbp
  40222f:	49 89 d4             	mov    %rdx,%r12
  402232:	64 48 8b 04 25 28 00 	mov    %fs:0x28,%rax
  402239:	00 00 
  40223b:	48 89 44 24 08       	mov    %rax,0x8(%rsp)
  402240:	31 c0                	xor    %eax,%eax
  402242:	bb 01 00 00 00       	mov    $0x1,%ebx
  402247:	4c 39 e3             	cmp    %r12,%rbx
  40224a:	73 47                	jae    402293 <rio_readlineb+0x74>
  40224c:	ba 01 00 00 00       	mov    $0x1,%edx
  402251:	48 8d 74 24 07       	lea    0x7(%rsp),%rsi
  402256:	4c 89 ef             	mov    %r13,%rdi
  402259:	e8 36 ff ff ff       	callq  402194 <rio_read>
  40225e:	83 f8 01             	cmp    $0x1,%eax
  402261:	75 1c                	jne    40227f <rio_readlineb+0x60>
  402263:	48 8d 45 01          	lea    0x1(%rbp),%rax
  402267:	0f b6 54 24 07       	movzbl 0x7(%rsp),%edx
  40226c:	88 55 00             	mov    %dl,0x0(%rbp)
  40226f:	80 7c 24 07 0a       	cmpb   $0xa,0x7(%rsp)
  402274:	74 1a                	je     402290 <rio_readlineb+0x71>
  402276:	48 83 c3 01          	add    $0x1,%rbx
  40227a:	48 89 c5             	mov    %rax,%rbp
  40227d:	eb c8                	jmp    402247 <rio_readlineb+0x28>
  40227f:	85 c0                	test   %eax,%eax
  402281:	75 32                	jne    4022b5 <rio_readlineb+0x96>
  402283:	48 83 fb 01          	cmp    $0x1,%rbx
  402287:	75 0a                	jne    402293 <rio_readlineb+0x74>
  402289:	b8 00 00 00 00       	mov    $0x0,%eax
  40228e:	eb 0a                	jmp    40229a <rio_readlineb+0x7b>
  402290:	48 89 c5             	mov    %rax,%rbp
  402293:	c6 45 00 00          	movb   $0x0,0x0(%rbp)
  402297:	48 89 d8             	mov    %rbx,%rax
  40229a:	48 8b 4c 24 08       	mov    0x8(%rsp),%rcx
  40229f:	64 48 33 0c 25 28 00 	xor    %fs:0x28,%rcx
  4022a6:	00 00 
  4022a8:	75 14                	jne    4022be <rio_readlineb+0x9f>
  4022aa:	48 83 c4 18          	add    $0x18,%rsp
  4022ae:	5b                   	pop    %rbx
  4022af:	5d                   	pop    %rbp
  4022b0:	41 5c                	pop    %r12
  4022b2:	41 5d                	pop    %r13
  4022b4:	c3                   	retq   
  4022b5:	48 c7 c0 ff ff ff ff 	mov    $0xffffffffffffffff,%rax
  4022bc:	eb dc                	jmp    40229a <rio_readlineb+0x7b>
  4022be:	e8 2d ea ff ff       	callq  400cf0 <__stack_chk_fail@plt>

00000000004022c3 <urlencode>:
  4022c3:	41 54                	push   %r12
  4022c5:	55                   	push   %rbp
  4022c6:	53                   	push   %rbx
  4022c7:	48 83 ec 10          	sub    $0x10,%rsp
  4022cb:	48 89 fb             	mov    %rdi,%rbx
  4022ce:	48 89 f5             	mov    %rsi,%rbp
  4022d1:	64 48 8b 04 25 28 00 	mov    %fs:0x28,%rax
  4022d8:	00 00 
  4022da:	48 89 44 24 08       	mov    %rax,0x8(%rsp)
  4022df:	31 c0                	xor    %eax,%eax
  4022e1:	48 c7 c1 ff ff ff ff 	mov    $0xffffffffffffffff,%rcx
  4022e8:	f2 ae                	repnz scas %es:(%rdi),%al
  4022ea:	48 89 ce             	mov    %rcx,%rsi
  4022ed:	48 f7 d6             	not    %rsi
  4022f0:	8d 46 ff             	lea    -0x1(%rsi),%eax
  4022f3:	eb 0f                	jmp    402304 <urlencode+0x41>
  4022f5:	44 88 45 00          	mov    %r8b,0x0(%rbp)
  4022f9:	48 8d 6d 01          	lea    0x1(%rbp),%rbp
  4022fd:	48 83 c3 01          	add    $0x1,%rbx
  402301:	44 89 e0             	mov    %r12d,%eax
  402304:	44 8d 60 ff          	lea    -0x1(%rax),%r12d
  402308:	85 c0                	test   %eax,%eax
  40230a:	0f 84 a6 00 00 00    	je     4023b6 <urlencode+0xf3>
  402310:	44 0f b6 03          	movzbl (%rbx),%r8d
  402314:	41 80 f8 2a          	cmp    $0x2a,%r8b
  402318:	0f 94 c2             	sete   %dl
  40231b:	41 80 f8 2d          	cmp    $0x2d,%r8b
  40231f:	0f 94 c0             	sete   %al
  402322:	08 c2                	or     %al,%dl
  402324:	75 cf                	jne    4022f5 <urlencode+0x32>
  402326:	41 80 f8 2e          	cmp    $0x2e,%r8b
  40232a:	74 c9                	je     4022f5 <urlencode+0x32>
  40232c:	41 80 f8 5f          	cmp    $0x5f,%r8b
  402330:	74 c3                	je     4022f5 <urlencode+0x32>
  402332:	41 8d 40 d0          	lea    -0x30(%r8),%eax
  402336:	3c 09                	cmp    $0x9,%al
  402338:	76 bb                	jbe    4022f5 <urlencode+0x32>
  40233a:	41 8d 40 bf          	lea    -0x41(%r8),%eax
  40233e:	3c 19                	cmp    $0x19,%al
  402340:	76 b3                	jbe    4022f5 <urlencode+0x32>
  402342:	41 8d 40 9f          	lea    -0x61(%r8),%eax
  402346:	3c 19                	cmp    $0x19,%al
  402348:	76 ab                	jbe    4022f5 <urlencode+0x32>
  40234a:	41 80 f8 20          	cmp    $0x20,%r8b
  40234e:	74 54                	je     4023a4 <urlencode+0xe1>
  402350:	41 8d 40 e0          	lea    -0x20(%r8),%eax
  402354:	3c 5f                	cmp    $0x5f,%al
  402356:	0f 96 c2             	setbe  %dl
  402359:	41 80 f8 09          	cmp    $0x9,%r8b
  40235d:	0f 94 c0             	sete   %al
  402360:	08 c2                	or     %al,%dl
  402362:	74 4d                	je     4023b1 <urlencode+0xee>
  402364:	45 0f b6 c0          	movzbl %r8b,%r8d
  402368:	b9 d8 36 40 00       	mov    $0x4036d8,%ecx
  40236d:	ba 08 00 00 00       	mov    $0x8,%edx
  402372:	be 01 00 00 00       	mov    $0x1,%esi
  402377:	48 89 e7             	mov    %rsp,%rdi
  40237a:	b8 00 00 00 00       	mov    $0x0,%eax
  40237f:	e8 fc ea ff ff       	callq  400e80 <__sprintf_chk@plt>
  402384:	0f b6 04 24          	movzbl (%rsp),%eax
  402388:	88 45 00             	mov    %al,0x0(%rbp)
  40238b:	0f b6 44 24 01       	movzbl 0x1(%rsp),%eax
  402390:	88 45 01             	mov    %al,0x1(%rbp)
  402393:	0f b6 44 24 02       	movzbl 0x2(%rsp),%eax
  402398:	88 45 02             	mov    %al,0x2(%rbp)
  40239b:	48 8d 6d 03          	lea    0x3(%rbp),%rbp
  40239f:	e9 59 ff ff ff       	jmpq   4022fd <urlencode+0x3a>
  4023a4:	c6 45 00 2b          	movb   $0x2b,0x0(%rbp)
  4023a8:	48 8d 6d 01          	lea    0x1(%rbp),%rbp
  4023ac:	e9 4c ff ff ff       	jmpq   4022fd <urlencode+0x3a>
  4023b1:	b8 ff ff ff ff       	mov    $0xffffffff,%eax
  4023b6:	48 8b 74 24 08       	mov    0x8(%rsp),%rsi
  4023bb:	64 48 33 34 25 28 00 	xor    %fs:0x28,%rsi
  4023c2:	00 00 
  4023c4:	75 09                	jne    4023cf <urlencode+0x10c>
  4023c6:	48 83 c4 10          	add    $0x10,%rsp
  4023ca:	5b                   	pop    %rbx
  4023cb:	5d                   	pop    %rbp
  4023cc:	41 5c                	pop    %r12
  4023ce:	c3                   	retq   
  4023cf:	e8 1c e9 ff ff       	callq  400cf0 <__stack_chk_fail@plt>

00000000004023d4 <submitr>:
  4023d4:	41 57                	push   %r15
  4023d6:	41 56                	push   %r14
  4023d8:	41 55                	push   %r13
  4023da:	41 54                	push   %r12
  4023dc:	55                   	push   %rbp
  4023dd:	53                   	push   %rbx
  4023de:	48 81 ec 58 a0 00 00 	sub    $0xa058,%rsp
  4023e5:	49 89 fc             	mov    %rdi,%r12
  4023e8:	89 74 24 04          	mov    %esi,0x4(%rsp)
  4023ec:	49 89 d7             	mov    %rdx,%r15
  4023ef:	49 89 ce             	mov    %rcx,%r14
  4023f2:	4c 89 44 24 08       	mov    %r8,0x8(%rsp)
  4023f7:	4d 89 cd             	mov    %r9,%r13
  4023fa:	48 8b ac 24 90 a0 00 	mov    0xa090(%rsp),%rbp
  402401:	00 
  402402:	64 48 8b 04 25 28 00 	mov    %fs:0x28,%rax
  402409:	00 00 
  40240b:	48 89 84 24 48 a0 00 	mov    %rax,0xa048(%rsp)
  402412:	00 
  402413:	31 c0                	xor    %eax,%eax
  402415:	c7 44 24 1c 00 00 00 	movl   $0x0,0x1c(%rsp)
  40241c:	00 
  40241d:	ba 00 00 00 00       	mov    $0x0,%edx
  402422:	be 01 00 00 00       	mov    $0x1,%esi
  402427:	bf 02 00 00 00       	mov    $0x2,%edi
  40242c:	e8 5f ea ff ff       	callq  400e90 <socket@plt>
  402431:	85 c0                	test   %eax,%eax
  402433:	0f 88 c6 01 00 00    	js     4025ff <submitr+0x22b>
  402439:	89 c3                	mov    %eax,%ebx
  40243b:	4c 89 e7             	mov    %r12,%rdi
  40243e:	e8 2d e9 ff ff       	callq  400d70 <gethostbyname@plt>
  402443:	48 85 c0             	test   %rax,%rax
  402446:	0f 84 02 02 00 00    	je     40264e <submitr+0x27a>
  40244c:	48 8d 4c 24 20       	lea    0x20(%rsp),%rcx
  402451:	48 c7 44 24 22 00 00 	movq   $0x0,0x22(%rsp)
  402458:	00 00 
  40245a:	c7 44 24 2a 00 00 00 	movl   $0x0,0x2a(%rsp)
  402461:	00 
  402462:	66 c7 44 24 2e 00 00 	movw   $0x0,0x2e(%rsp)
  402469:	66 c7 44 24 20 02 00 	movw   $0x2,0x20(%rsp)
  402470:	48 63 50 14          	movslq 0x14(%rax),%rdx
  402474:	48 8b 40 18          	mov    0x18(%rax),%rax
  402478:	48 8b 30             	mov    (%rax),%rsi
  40247b:	48 8d 79 04          	lea    0x4(%rcx),%rdi
  40247f:	b9 0c 00 00 00       	mov    $0xc,%ecx
  402484:	e8 f7 e8 ff ff       	callq  400d80 <__memmove_chk@plt>
  402489:	0f b7 44 24 04       	movzwl 0x4(%rsp),%eax
  40248e:	66 c1 c8 08          	ror    $0x8,%ax
  402492:	66 89 44 24 22       	mov    %ax,0x22(%rsp)
  402497:	ba 10 00 00 00       	mov    $0x10,%edx
  40249c:	48 8d 74 24 20       	lea    0x20(%rsp),%rsi
  4024a1:	89 df                	mov    %ebx,%edi
  4024a3:	e8 b8 e9 ff ff       	callq  400e60 <connect@plt>
  4024a8:	85 c0                	test   %eax,%eax
  4024aa:	0f 88 06 02 00 00    	js     4026b6 <submitr+0x2e2>
  4024b0:	48 c7 c6 ff ff ff ff 	mov    $0xffffffffffffffff,%rsi
  4024b7:	b8 00 00 00 00       	mov    $0x0,%eax
  4024bc:	48 89 f1             	mov    %rsi,%rcx
  4024bf:	4c 89 ef             	mov    %r13,%rdi
  4024c2:	f2 ae                	repnz scas %es:(%rdi),%al
  4024c4:	48 f7 d1             	not    %rcx
  4024c7:	48 89 ca             	mov    %rcx,%rdx
  4024ca:	48 89 f1             	mov    %rsi,%rcx
  4024cd:	4c 89 ff             	mov    %r15,%rdi
  4024d0:	f2 ae                	repnz scas %es:(%rdi),%al
  4024d2:	48 f7 d1             	not    %rcx
  4024d5:	49 89 c8             	mov    %rcx,%r8
  4024d8:	48 89 f1             	mov    %rsi,%rcx
  4024db:	4c 89 f7             	mov    %r14,%rdi
  4024de:	f2 ae                	repnz scas %es:(%rdi),%al
  4024e0:	48 f7 d1             	not    %rcx
  4024e3:	4d 8d 44 08 fe       	lea    -0x2(%r8,%rcx,1),%r8
  4024e8:	48 89 f1             	mov    %rsi,%rcx
  4024eb:	48 8b 7c 24 08       	mov    0x8(%rsp),%rdi
  4024f0:	f2 ae                	repnz scas %es:(%rdi),%al
  4024f2:	48 89 c8             	mov    %rcx,%rax
  4024f5:	48 f7 d0             	not    %rax
  4024f8:	49 8d 4c 00 ff       	lea    -0x1(%r8,%rax,1),%rcx
  4024fd:	48 8d 44 52 fd       	lea    -0x3(%rdx,%rdx,2),%rax
  402502:	48 8d 84 01 80 00 00 	lea    0x80(%rcx,%rax,1),%rax
  402509:	00 
  40250a:	48 3d 00 20 00 00    	cmp    $0x2000,%rax
  402510:	0f 87 fa 01 00 00    	ja     402710 <submitr+0x33c>
  402516:	48 8d b4 24 40 40 00 	lea    0x4040(%rsp),%rsi
  40251d:	00 
  40251e:	b9 00 04 00 00       	mov    $0x400,%ecx
  402523:	b8 00 00 00 00       	mov    $0x0,%eax
  402528:	48 89 f7             	mov    %rsi,%rdi
  40252b:	f3 48 ab             	rep stos %rax,%es:(%rdi)
  40252e:	4c 89 ef             	mov    %r13,%rdi
  402531:	e8 8d fd ff ff       	callq  4022c3 <urlencode>
  402536:	85 c0                	test   %eax,%eax
  402538:	0f 88 45 02 00 00    	js     402783 <submitr+0x3af>
  40253e:	4c 8d ac 24 40 20 00 	lea    0x2040(%rsp),%r13
  402545:	00 
  402546:	41 54                	push   %r12
  402548:	48 8d 84 24 48 40 00 	lea    0x4048(%rsp),%rax
  40254f:	00 
  402550:	50                   	push   %rax
  402551:	4d 89 f9             	mov    %r15,%r9
  402554:	4d 89 f0             	mov    %r14,%r8
  402557:	b9 68 36 40 00       	mov    $0x403668,%ecx
  40255c:	ba 00 20 00 00       	mov    $0x2000,%edx
  402561:	be 01 00 00 00       	mov    $0x1,%esi
  402566:	4c 89 ef             	mov    %r13,%rdi
  402569:	b8 00 00 00 00       	mov    $0x0,%eax
  40256e:	e8 0d e9 ff ff       	callq  400e80 <__sprintf_chk@plt>
  402573:	48 c7 c1 ff ff ff ff 	mov    $0xffffffffffffffff,%rcx
  40257a:	b8 00 00 00 00       	mov    $0x0,%eax
  40257f:	4c 89 ef             	mov    %r13,%rdi
  402582:	f2 ae                	repnz scas %es:(%rdi),%al
  402584:	48 f7 d1             	not    %rcx
  402587:	48 8d 51 ff          	lea    -0x1(%rcx),%rdx
  40258b:	4c 89 ee             	mov    %r13,%rsi
  40258e:	89 df                	mov    %ebx,%edi
  402590:	e8 a1 fb ff ff       	callq  402136 <rio_writen>
  402595:	48 83 c4 10          	add    $0x10,%rsp
  402599:	48 85 c0             	test   %rax,%rax
  40259c:	0f 88 6c 02 00 00    	js     40280e <submitr+0x43a>
  4025a2:	89 de                	mov    %ebx,%esi
  4025a4:	48 8d 7c 24 30       	lea    0x30(%rsp),%rdi
  4025a9:	e8 48 fb ff ff       	callq  4020f6 <rio_readinitb>
  4025ae:	ba 00 20 00 00       	mov    $0x2000,%edx
  4025b3:	48 8d b4 24 40 20 00 	lea    0x2040(%rsp),%rsi
  4025ba:	00 
  4025bb:	48 8d 7c 24 30       	lea    0x30(%rsp),%rdi
  4025c0:	e8 5a fc ff ff       	callq  40221f <rio_readlineb>
  4025c5:	48 85 c0             	test   %rax,%rax
  4025c8:	0f 8e af 02 00 00    	jle    40287d <submitr+0x4a9>
  4025ce:	4c 8d 84 24 40 80 00 	lea    0x8040(%rsp),%r8
  4025d5:	00 
  4025d6:	48 8d 4c 24 1c       	lea    0x1c(%rsp),%rcx
  4025db:	48 8d 94 24 40 60 00 	lea    0x6040(%rsp),%rdx
  4025e2:	00 
  4025e3:	be df 36 40 00       	mov    $0x4036df,%esi
  4025e8:	48 8d bc 24 40 20 00 	lea    0x2040(%rsp),%rdi
  4025ef:	00 
  4025f0:	b8 00 00 00 00       	mov    $0x0,%eax
  4025f5:	e8 e6 e7 ff ff       	callq  400de0 <__isoc99_sscanf@plt>
  4025fa:	e9 bb 03 00 00       	jmpq   4029ba <submitr+0x5e6>
  4025ff:	48 b8 45 72 72 6f 72 	movabs $0x43203a726f727245,%rax
  402606:	3a 20 43 
  402609:	48 ba 6c 69 65 6e 74 	movabs $0x6e7520746e65696c,%rdx
  402610:	20 75 6e 
  402613:	48 89 45 00          	mov    %rax,0x0(%rbp)
  402617:	48 89 55 08          	mov    %rdx,0x8(%rbp)
  40261b:	48 b8 61 62 6c 65 20 	movabs $0x206f7420656c6261,%rax
  402622:	74 6f 20 
  402625:	48 ba 63 72 65 61 74 	movabs $0x7320657461657263,%rdx
  40262c:	65 20 73 
  40262f:	48 89 45 10          	mov    %rax,0x10(%rbp)
  402633:	48 89 55 18          	mov    %rdx,0x18(%rbp)
  402637:	c7 45 20 6f 63 6b 65 	movl   $0x656b636f,0x20(%rbp)
  40263e:	66 c7 45 24 74 00    	movw   $0x74,0x24(%rbp)
  402644:	b8 ff ff ff ff       	mov    $0xffffffff,%eax
  402649:	e9 1f 03 00 00       	jmpq   40296d <submitr+0x599>
  40264e:	48 b8 45 72 72 6f 72 	movabs $0x44203a726f727245,%rax
  402655:	3a 20 44 
  402658:	48 ba 4e 53 20 69 73 	movabs $0x6e7520736920534e,%rdx
  40265f:	20 75 6e 
  402662:	48 89 45 00          	mov    %rax,0x0(%rbp)
  402666:	48 89 55 08          	mov    %rdx,0x8(%rbp)
  40266a:	48 b8 61 62 6c 65 20 	movabs $0x206f7420656c6261,%rax
  402671:	74 6f 20 
  402674:	48 ba 72 65 73 6f 6c 	movabs $0x2065766c6f736572,%rdx
  40267b:	76 65 20 
  40267e:	48 89 45 10          	mov    %rax,0x10(%rbp)
  402682:	48 89 55 18          	mov    %rdx,0x18(%rbp)
  402686:	48 b8 73 65 72 76 65 	movabs $0x6120726576726573,%rax
  40268d:	72 20 61 
  402690:	48 89 45 20          	mov    %rax,0x20(%rbp)
  402694:	c7 45 28 64 64 72 65 	movl   $0x65726464,0x28(%rbp)
  40269b:	66 c7 45 2c 73 73    	movw   $0x7373,0x2c(%rbp)
  4026a1:	c6 45 2e 00          	movb   $0x0,0x2e(%rbp)
  4026a5:	89 df                	mov    %ebx,%edi
  4026a7:	e8 84 e6 ff ff       	callq  400d30 <close@plt>
  4026ac:	b8 ff ff ff ff       	mov    $0xffffffff,%eax
  4026b1:	e9 b7 02 00 00       	jmpq   40296d <submitr+0x599>
  4026b6:	48 b8 45 72 72 6f 72 	movabs $0x55203a726f727245,%rax
  4026bd:	3a 20 55 
  4026c0:	48 ba 6e 61 62 6c 65 	movabs $0x6f7420656c62616e,%rdx
  4026c7:	20 74 6f 
  4026ca:	48 89 45 00          	mov    %rax,0x0(%rbp)
  4026ce:	48 89 55 08          	mov    %rdx,0x8(%rbp)
  4026d2:	48 b8 20 63 6f 6e 6e 	movabs $0x7463656e6e6f6320,%rax
  4026d9:	65 63 74 
  4026dc:	48 ba 20 74 6f 20 74 	movabs $0x20656874206f7420,%rdx
  4026e3:	68 65 20 
  4026e6:	48 89 45 10          	mov    %rax,0x10(%rbp)
  4026ea:	48 89 55 18          	mov    %rdx,0x18(%rbp)
  4026ee:	c7 45 20 73 65 72 76 	movl   $0x76726573,0x20(%rbp)
  4026f5:	66 c7 45 24 65 72    	movw   $0x7265,0x24(%rbp)
  4026fb:	c6 45 26 00          	movb   $0x0,0x26(%rbp)
  4026ff:	89 df                	mov    %ebx,%edi
  402701:	e8 2a e6 ff ff       	callq  400d30 <close@plt>
  402706:	b8 ff ff ff ff       	mov    $0xffffffff,%eax
  40270b:	e9 5d 02 00 00       	jmpq   40296d <submitr+0x599>
  402710:	48 b8 45 72 72 6f 72 	movabs $0x52203a726f727245,%rax
  402717:	3a 20 52 
  40271a:	48 ba 65 73 75 6c 74 	movabs $0x747320746c757365,%rdx
  402721:	20 73 74 
  402724:	48 89 45 00          	mov    %rax,0x0(%rbp)
  402728:	48 89 55 08          	mov    %rdx,0x8(%rbp)
  40272c:	48 b8 72 69 6e 67 20 	movabs $0x6f6f7420676e6972,%rax
  402733:	74 6f 6f 
  402736:	48 ba 20 6c 61 72 67 	movabs $0x202e656772616c20,%rdx
  40273d:	65 2e 20 
  402740:	48 89 45 10          	mov    %rax,0x10(%rbp)
  402744:	48 89 55 18          	mov    %rdx,0x18(%rbp)
  402748:	48 b8 49 6e 63 72 65 	movabs $0x6573616572636e49,%rax
  40274f:	61 73 65 
  402752:	48 ba 20 53 55 42 4d 	movabs $0x5254494d42555320,%rdx
  402759:	49 54 52 
  40275c:	48 89 45 20          	mov    %rax,0x20(%rbp)
  402760:	48 89 55 28          	mov    %rdx,0x28(%rbp)
  402764:	48 b8 5f 4d 41 58 42 	movabs $0x46554258414d5f,%rax
  40276b:	55 46 00 
  40276e:	48 89 45 30          	mov    %rax,0x30(%rbp)
  402772:	89 df                	mov    %ebx,%edi
  402774:	e8 b7 e5 ff ff       	callq  400d30 <close@plt>
  402779:	b8 ff ff ff ff       	mov    $0xffffffff,%eax
  40277e:	e9 ea 01 00 00       	jmpq   40296d <submitr+0x599>
  402783:	48 b8 45 72 72 6f 72 	movabs $0x52203a726f727245,%rax
  40278a:	3a 20 52 
  40278d:	48 ba 65 73 75 6c 74 	movabs $0x747320746c757365,%rdx
  402794:	20 73 74 
  402797:	48 89 45 00          	mov    %rax,0x0(%rbp)
  40279b:	48 89 55 08          	mov    %rdx,0x8(%rbp)
  40279f:	48 b8 72 69 6e 67 20 	movabs $0x6e6f6320676e6972,%rax
  4027a6:	63 6f 6e 
  4027a9:	48 ba 74 61 69 6e 73 	movabs $0x6e6120736e696174,%rdx
  4027b0:	20 61 6e 
  4027b3:	48 89 45 10          	mov    %rax,0x10(%rbp)
  4027b7:	48 89 55 18          	mov    %rdx,0x18(%rbp)
  4027bb:	48 b8 20 69 6c 6c 65 	movabs $0x6c6167656c6c6920,%rax
  4027c2:	67 61 6c 
  4027c5:	48 ba 20 6f 72 20 75 	movabs $0x72706e7520726f20,%rdx
  4027cc:	6e 70 72 
  4027cf:	48 89 45 20          	mov    %rax,0x20(%rbp)
  4027d3:	48 89 55 28          	mov    %rdx,0x28(%rbp)
  4027d7:	48 b8 69 6e 74 61 62 	movabs $0x20656c6261746e69,%rax
  4027de:	6c 65 20 
  4027e1:	48 ba 63 68 61 72 61 	movabs $0x6574636172616863,%rdx
  4027e8:	63 74 65 
  4027eb:	48 89 45 30          	mov    %rax,0x30(%rbp)
  4027ef:	48 89 55 38          	mov    %rdx,0x38(%rbp)
  4027f3:	66 c7 45 40 72 2e    	movw   $0x2e72,0x40(%rbp)
  4027f9:	c6 45 42 00          	movb   $0x0,0x42(%rbp)
  4027fd:	89 df                	mov    %ebx,%edi
  4027ff:	e8 2c e5 ff ff       	callq  400d30 <close@plt>
  402804:	b8 ff ff ff ff       	mov    $0xffffffff,%eax
  402809:	e9 5f 01 00 00       	jmpq   40296d <submitr+0x599>
  40280e:	48 b8 45 72 72 6f 72 	movabs $0x43203a726f727245,%rax
  402815:	3a 20 43 
  402818:	48 ba 6c 69 65 6e 74 	movabs $0x6e7520746e65696c,%rdx
  40281f:	20 75 6e 
  402822:	48 89 45 00          	mov    %rax,0x0(%rbp)
  402826:	48 89 55 08          	mov    %rdx,0x8(%rbp)
  40282a:	48 b8 61 62 6c 65 20 	movabs $0x206f7420656c6261,%rax
  402831:	74 6f 20 
  402834:	48 ba 77 72 69 74 65 	movabs $0x6f74206574697277,%rdx
  40283b:	20 74 6f 
  40283e:	48 89 45 10          	mov    %rax,0x10(%rbp)
  402842:	48 89 55 18          	mov    %rdx,0x18(%rbp)
  402846:	48 b8 20 74 68 65 20 	movabs $0x7365722065687420,%rax
  40284d:	72 65 73 
  402850:	48 ba 75 6c 74 20 73 	movabs $0x7672657320746c75,%rdx
  402857:	65 72 76 
  40285a:	48 89 45 20          	mov    %rax,0x20(%rbp)
  40285e:	48 89 55 28          	mov    %rdx,0x28(%rbp)
  402862:	66 c7 45 30 65 72    	movw   $0x7265,0x30(%rbp)
  402868:	c6 45 32 00          	movb   $0x0,0x32(%rbp)
  40286c:	89 df                	mov    %ebx,%edi
  40286e:	e8 bd e4 ff ff       	callq  400d30 <close@plt>
  402873:	b8 ff ff ff ff       	mov    $0xffffffff,%eax
  402878:	e9 f0 00 00 00       	jmpq   40296d <submitr+0x599>
  40287d:	48 b8 45 72 72 6f 72 	movabs $0x43203a726f727245,%rax
  402884:	3a 20 43 
  402887:	48 ba 6c 69 65 6e 74 	movabs $0x6e7520746e65696c,%rdx
  40288e:	20 75 6e 
  402891:	48 89 45 00          	mov    %rax,0x0(%rbp)
  402895:	48 89 55 08          	mov    %rdx,0x8(%rbp)
  402899:	48 b8 61 62 6c 65 20 	movabs $0x206f7420656c6261,%rax
  4028a0:	74 6f 20 
  4028a3:	48 ba 72 65 61 64 20 	movabs $0x7269662064616572,%rdx
  4028aa:	66 69 72 
  4028ad:	48 89 45 10          	mov    %rax,0x10(%rbp)
  4028b1:	48 89 55 18          	mov    %rdx,0x18(%rbp)
  4028b5:	48 b8 73 74 20 68 65 	movabs $0x6564616568207473,%rax
  4028bc:	61 64 65 
  4028bf:	48 ba 72 20 66 72 6f 	movabs $0x72206d6f72662072,%rdx
  4028c6:	6d 20 72 
  4028c9:	48 89 45 20          	mov    %rax,0x20(%rbp)
  4028cd:	48 89 55 28          	mov    %rdx,0x28(%rbp)
  4028d1:	48 b8 65 73 75 6c 74 	movabs $0x657320746c757365,%rax
  4028d8:	20 73 65 
  4028db:	48 89 45 30          	mov    %rax,0x30(%rbp)
  4028df:	c7 45 38 72 76 65 72 	movl   $0x72657672,0x38(%rbp)
  4028e6:	c6 45 3c 00          	movb   $0x0,0x3c(%rbp)
  4028ea:	89 df                	mov    %ebx,%edi
  4028ec:	e8 3f e4 ff ff       	callq  400d30 <close@plt>
  4028f1:	b8 ff ff ff ff       	mov    $0xffffffff,%eax
  4028f6:	eb 75                	jmp    40296d <submitr+0x599>
  4028f8:	48 b8 45 72 72 6f 72 	movabs $0x43203a726f727245,%rax
  4028ff:	3a 20 43 
  402902:	48 ba 6c 69 65 6e 74 	movabs $0x6e7520746e65696c,%rdx
  402909:	20 75 6e 
  40290c:	48 89 45 00          	mov    %rax,0x0(%rbp)
  402910:	48 89 55 08          	mov    %rdx,0x8(%rbp)
  402914:	48 b8 61 62 6c 65 20 	movabs $0x206f7420656c6261,%rax
  40291b:	74 6f 20 
  40291e:	48 ba 72 65 61 64 20 	movabs $0x6165682064616572,%rdx
  402925:	68 65 61 
  402928:	48 89 45 10          	mov    %rax,0x10(%rbp)
  40292c:	48 89 55 18          	mov    %rdx,0x18(%rbp)
  402930:	48 b8 64 65 72 73 20 	movabs $0x6f72662073726564,%rax
  402937:	66 72 6f 
  40293a:	48 ba 6d 20 74 68 65 	movabs $0x657220656874206d,%rdx
  402941:	20 72 65 
  402944:	48 89 45 20          	mov    %rax,0x20(%rbp)
  402948:	48 89 55 28          	mov    %rdx,0x28(%rbp)
  40294c:	48 b8 73 75 6c 74 20 	movabs $0x72657320746c7573,%rax
  402953:	73 65 72 
  402956:	48 89 45 30          	mov    %rax,0x30(%rbp)
  40295a:	c7 45 38 76 65 72 00 	movl   $0x726576,0x38(%rbp)
  402961:	89 df                	mov    %ebx,%edi
  402963:	e8 c8 e3 ff ff       	callq  400d30 <close@plt>
  402968:	b8 ff ff ff ff       	mov    $0xffffffff,%eax
  40296d:	48 8b 9c 24 48 a0 00 	mov    0xa048(%rsp),%rbx
  402974:	00 
  402975:	64 48 33 1c 25 28 00 	xor    %fs:0x28,%rbx
  40297c:	00 00 
  40297e:	0f 85 f6 01 00 00    	jne    402b7a <submitr+0x7a6>
  402984:	48 81 c4 58 a0 00 00 	add    $0xa058,%rsp
  40298b:	5b                   	pop    %rbx
  40298c:	5d                   	pop    %rbp
  40298d:	41 5c                	pop    %r12
  40298f:	41 5d                	pop    %r13
  402991:	41 5e                	pop    %r14
  402993:	41 5f                	pop    %r15
  402995:	c3                   	retq   
  402996:	85 c0                	test   %eax,%eax
  402998:	74 4e                	je     4029e8 <submitr+0x614>
  40299a:	ba 00 20 00 00       	mov    $0x2000,%edx
  40299f:	48 8d b4 24 40 20 00 	lea    0x2040(%rsp),%rsi
  4029a6:	00 
  4029a7:	48 8d 7c 24 30       	lea    0x30(%rsp),%rdi
  4029ac:	e8 6e f8 ff ff       	callq  40221f <rio_readlineb>
  4029b1:	48 85 c0             	test   %rax,%rax
  4029b4:	0f 8e 3e ff ff ff    	jle    4028f8 <submitr+0x524>
  4029ba:	0f b6 94 24 40 20 00 	movzbl 0x2040(%rsp),%edx
  4029c1:	00 
  4029c2:	b8 0d 00 00 00       	mov    $0xd,%eax
  4029c7:	29 d0                	sub    %edx,%eax
  4029c9:	75 cb                	jne    402996 <submitr+0x5c2>
  4029cb:	0f b6 94 24 41 20 00 	movzbl 0x2041(%rsp),%edx
  4029d2:	00 
  4029d3:	b8 0a 00 00 00       	mov    $0xa,%eax
  4029d8:	29 d0                	sub    %edx,%eax
  4029da:	75 ba                	jne    402996 <submitr+0x5c2>
  4029dc:	0f b6 84 24 42 20 00 	movzbl 0x2042(%rsp),%eax
  4029e3:	00 
  4029e4:	f7 d8                	neg    %eax
  4029e6:	eb ae                	jmp    402996 <submitr+0x5c2>
  4029e8:	ba 00 20 00 00       	mov    $0x2000,%edx
  4029ed:	48 8d b4 24 40 20 00 	lea    0x2040(%rsp),%rsi
  4029f4:	00 
  4029f5:	48 8d 7c 24 30       	lea    0x30(%rsp),%rdi
  4029fa:	e8 20 f8 ff ff       	callq  40221f <rio_readlineb>
  4029ff:	48 85 c0             	test   %rax,%rax
  402a02:	7e 67                	jle    402a6b <submitr+0x697>
  402a04:	44 8b 44 24 1c       	mov    0x1c(%rsp),%r8d
  402a09:	41 81 f8 c8 00 00 00 	cmp    $0xc8,%r8d
  402a10:	0f 85 d9 00 00 00    	jne    402aef <submitr+0x71b>
  402a16:	48 8d b4 24 40 20 00 	lea    0x2040(%rsp),%rsi
  402a1d:	00 
  402a1e:	48 89 ef             	mov    %rbp,%rdi
  402a21:	e8 9a e2 ff ff       	callq  400cc0 <strcpy@plt>
  402a26:	89 df                	mov    %ebx,%edi
  402a28:	e8 03 e3 ff ff       	callq  400d30 <close@plt>
  402a2d:	0f b6 45 00          	movzbl 0x0(%rbp),%eax
  402a31:	ba 4f 00 00 00       	mov    $0x4f,%edx
  402a36:	29 c2                	sub    %eax,%edx
  402a38:	0f 85 e8 00 00 00    	jne    402b26 <submitr+0x752>
  402a3e:	0f b6 4d 01          	movzbl 0x1(%rbp),%ecx
  402a42:	b8 4b 00 00 00       	mov    $0x4b,%eax
  402a47:	29 c8                	sub    %ecx,%eax
  402a49:	0f 85 d9 00 00 00    	jne    402b28 <submitr+0x754>
  402a4f:	0f b6 4d 02          	movzbl 0x2(%rbp),%ecx
  402a53:	b8 0a 00 00 00       	mov    $0xa,%eax
  402a58:	29 c8                	sub    %ecx,%eax
  402a5a:	0f 85 c8 00 00 00    	jne    402b28 <submitr+0x754>
  402a60:	0f b6 45 03          	movzbl 0x3(%rbp),%eax
  402a64:	f7 d8                	neg    %eax
  402a66:	e9 bd 00 00 00       	jmpq   402b28 <submitr+0x754>
  402a6b:	48 b8 45 72 72 6f 72 	movabs $0x43203a726f727245,%rax
  402a72:	3a 20 43 
  402a75:	48 ba 6c 69 65 6e 74 	movabs $0x6e7520746e65696c,%rdx
  402a7c:	20 75 6e 
  402a7f:	48 89 45 00          	mov    %rax,0x0(%rbp)
  402a83:	48 89 55 08          	mov    %rdx,0x8(%rbp)
  402a87:	48 b8 61 62 6c 65 20 	movabs $0x206f7420656c6261,%rax
  402a8e:	74 6f 20 
  402a91:	48 ba 72 65 61 64 20 	movabs $0x6174732064616572,%rdx
  402a98:	73 74 61 
  402a9b:	48 89 45 10          	mov    %rax,0x10(%rbp)
  402a9f:	48 89 55 18          	mov    %rdx,0x18(%rbp)
  402aa3:	48 b8 74 75 73 20 6d 	movabs $0x7373656d20737574,%rax
  402aaa:	65 73 73 
  402aad:	48 ba 61 67 65 20 66 	movabs $0x6d6f726620656761,%rdx
  402ab4:	72 6f 6d 
  402ab7:	48 89 45 20          	mov    %rax,0x20(%rbp)
  402abb:	48 89 55 28          	mov    %rdx,0x28(%rbp)
  402abf:	48 b8 20 72 65 73 75 	movabs $0x20746c7573657220,%rax
  402ac6:	6c 74 20 
  402ac9:	48 89 45 30          	mov    %rax,0x30(%rbp)
  402acd:	c7 45 38 73 65 72 76 	movl   $0x76726573,0x38(%rbp)
  402ad4:	66 c7 45 3c 65 72    	movw   $0x7265,0x3c(%rbp)
  402ada:	c6 45 3e 00          	movb   $0x0,0x3e(%rbp)
  402ade:	89 df                	mov    %ebx,%edi
  402ae0:	e8 4b e2 ff ff       	callq  400d30 <close@plt>
  402ae5:	b8 ff ff ff ff       	mov    $0xffffffff,%eax
  402aea:	e9 7e fe ff ff       	jmpq   40296d <submitr+0x599>
  402aef:	4c 8d 8c 24 40 80 00 	lea    0x8040(%rsp),%r9
  402af6:	00 
  402af7:	b9 a8 36 40 00       	mov    $0x4036a8,%ecx
  402afc:	48 c7 c2 ff ff ff ff 	mov    $0xffffffffffffffff,%rdx
  402b03:	be 01 00 00 00       	mov    $0x1,%esi
  402b08:	48 89 ef             	mov    %rbp,%rdi
  402b0b:	b8 00 00 00 00       	mov    $0x0,%eax
  402b10:	e8 6b e3 ff ff       	callq  400e80 <__sprintf_chk@plt>
  402b15:	89 df                	mov    %ebx,%edi
  402b17:	e8 14 e2 ff ff       	callq  400d30 <close@plt>
  402b1c:	b8 ff ff ff ff       	mov    $0xffffffff,%eax
  402b21:	e9 47 fe ff ff       	jmpq   40296d <submitr+0x599>
  402b26:	89 d0                	mov    %edx,%eax
  402b28:	f7 d8                	neg    %eax
  402b2a:	0f 84 3d fe ff ff    	je     40296d <submitr+0x599>
  402b30:	bf f0 36 40 00       	mov    $0x4036f0,%edi
  402b35:	b9 05 00 00 00       	mov    $0x5,%ecx
  402b3a:	48 89 ee             	mov    %rbp,%rsi
  402b3d:	f3 a6                	repz cmpsb %es:(%rdi),%ds:(%rsi)
  402b3f:	0f 97 c0             	seta   %al
  402b42:	1c 00                	sbb    $0x0,%al
  402b44:	0f be c0             	movsbl %al,%eax
  402b47:	85 c0                	test   %eax,%eax
  402b49:	0f 84 1e fe ff ff    	je     40296d <submitr+0x599>
  402b4f:	85 d2                	test   %edx,%edx
  402b51:	75 13                	jne    402b66 <submitr+0x792>
  402b53:	0f b6 45 01          	movzbl 0x1(%rbp),%eax
  402b57:	ba 4b 00 00 00       	mov    $0x4b,%edx
  402b5c:	29 c2                	sub    %eax,%edx
  402b5e:	75 06                	jne    402b66 <submitr+0x792>
  402b60:	0f b6 55 02          	movzbl 0x2(%rbp),%edx
  402b64:	f7 da                	neg    %edx
  402b66:	89 d0                	mov    %edx,%eax
  402b68:	f7 d8                	neg    %eax
  402b6a:	0f 84 fd fd ff ff    	je     40296d <submitr+0x599>
  402b70:	b8 ff ff ff ff       	mov    $0xffffffff,%eax
  402b75:	e9 f3 fd ff ff       	jmpq   40296d <submitr+0x599>
  402b7a:	e8 71 e1 ff ff       	callq  400cf0 <__stack_chk_fail@plt>

0000000000402b7f <init_timeout>:
  402b7f:	85 ff                	test   %edi,%edi
  402b81:	74 26                	je     402ba9 <init_timeout+0x2a>
  402b83:	53                   	push   %rbx
  402b84:	89 fb                	mov    %edi,%ebx
  402b86:	85 ff                	test   %edi,%edi
  402b88:	78 18                	js     402ba2 <init_timeout+0x23>
  402b8a:	be 08 21 40 00       	mov    $0x402108,%esi
  402b8f:	bf 0e 00 00 00       	mov    $0xe,%edi
  402b94:	e8 c7 e1 ff ff       	callq  400d60 <signal@plt>
  402b99:	89 df                	mov    %ebx,%edi
  402b9b:	e8 80 e1 ff ff       	callq  400d20 <alarm@plt>
  402ba0:	5b                   	pop    %rbx
  402ba1:	c3                   	retq   
  402ba2:	bb 00 00 00 00       	mov    $0x0,%ebx
  402ba7:	eb e1                	jmp    402b8a <init_timeout+0xb>
  402ba9:	f3 c3                	repz retq 

0000000000402bab <init_driver>:
  402bab:	55                   	push   %rbp
  402bac:	53                   	push   %rbx
  402bad:	48 83 ec 28          	sub    $0x28,%rsp
  402bb1:	48 89 fd             	mov    %rdi,%rbp
  402bb4:	64 48 8b 04 25 28 00 	mov    %fs:0x28,%rax
  402bbb:	00 00 
  402bbd:	48 89 44 24 18       	mov    %rax,0x18(%rsp)
  402bc2:	31 c0                	xor    %eax,%eax
  402bc4:	be 01 00 00 00       	mov    $0x1,%esi
  402bc9:	bf 0d 00 00 00       	mov    $0xd,%edi
  402bce:	e8 8d e1 ff ff       	callq  400d60 <signal@plt>
  402bd3:	be 01 00 00 00       	mov    $0x1,%esi
  402bd8:	bf 1d 00 00 00       	mov    $0x1d,%edi
  402bdd:	e8 7e e1 ff ff       	callq  400d60 <signal@plt>
  402be2:	be 01 00 00 00       	mov    $0x1,%esi
  402be7:	bf 1d 00 00 00       	mov    $0x1d,%edi
  402bec:	e8 6f e1 ff ff       	callq  400d60 <signal@plt>
  402bf1:	ba 00 00 00 00       	mov    $0x0,%edx
  402bf6:	be 01 00 00 00       	mov    $0x1,%esi
  402bfb:	bf 02 00 00 00       	mov    $0x2,%edi
  402c00:	e8 8b e2 ff ff       	callq  400e90 <socket@plt>
  402c05:	85 c0                	test   %eax,%eax
  402c07:	0f 88 9c 00 00 00    	js     402ca9 <init_driver+0xfe>
  402c0d:	89 c3                	mov    %eax,%ebx
  402c0f:	bf f5 36 40 00       	mov    $0x4036f5,%edi
  402c14:	e8 57 e1 ff ff       	callq  400d70 <gethostbyname@plt>
  402c19:	48 85 c0             	test   %rax,%rax
  402c1c:	0f 84 d3 00 00 00    	je     402cf5 <init_driver+0x14a>
  402c22:	48 c7 44 24 02 00 00 	movq   $0x0,0x2(%rsp)
  402c29:	00 00 
  402c2b:	c7 44 24 0a 00 00 00 	movl   $0x0,0xa(%rsp)
  402c32:	00 
  402c33:	66 c7 44 24 0e 00 00 	movw   $0x0,0xe(%rsp)
  402c3a:	66 c7 04 24 02 00    	movw   $0x2,(%rsp)
  402c40:	48 63 50 14          	movslq 0x14(%rax),%rdx
  402c44:	48 8b 40 18          	mov    0x18(%rax),%rax
  402c48:	48 8b 30             	mov    (%rax),%rsi
  402c4b:	48 8d 7c 24 04       	lea    0x4(%rsp),%rdi
  402c50:	b9 0c 00 00 00       	mov    $0xc,%ecx
  402c55:	e8 26 e1 ff ff       	callq  400d80 <__memmove_chk@plt>
  402c5a:	66 c7 44 24 02 3c 9a 	movw   $0x9a3c,0x2(%rsp)
  402c61:	ba 10 00 00 00       	mov    $0x10,%edx
  402c66:	48 89 e6             	mov    %rsp,%rsi
  402c69:	89 df                	mov    %ebx,%edi
  402c6b:	e8 f0 e1 ff ff       	callq  400e60 <connect@plt>
  402c70:	85 c0                	test   %eax,%eax
  402c72:	0f 88 e5 00 00 00    	js     402d5d <init_driver+0x1b2>
  402c78:	89 df                	mov    %ebx,%edi
  402c7a:	e8 b1 e0 ff ff       	callq  400d30 <close@plt>
  402c7f:	66 c7 45 00 4f 4b    	movw   $0x4b4f,0x0(%rbp)
  402c85:	c6 45 02 00          	movb   $0x0,0x2(%rbp)
  402c89:	b8 00 00 00 00       	mov    $0x0,%eax
  402c8e:	48 8b 4c 24 18       	mov    0x18(%rsp),%rcx
  402c93:	64 48 33 0c 25 28 00 	xor    %fs:0x28,%rcx
  402c9a:	00 00 
  402c9c:	0f 85 0e 01 00 00    	jne    402db0 <init_driver+0x205>
  402ca2:	48 83 c4 28          	add    $0x28,%rsp
  402ca6:	5b                   	pop    %rbx
  402ca7:	5d                   	pop    %rbp
  402ca8:	c3                   	retq   
  402ca9:	48 b8 45 72 72 6f 72 	movabs $0x43203a726f727245,%rax
  402cb0:	3a 20 43 
  402cb3:	48 ba 6c 69 65 6e 74 	movabs $0x6e7520746e65696c,%rdx
  402cba:	20 75 6e 
  402cbd:	48 89 45 00          	mov    %rax,0x0(%rbp)
  402cc1:	48 89 55 08          	mov    %rdx,0x8(%rbp)
  402cc5:	48 b8 61 62 6c 65 20 	movabs $0x206f7420656c6261,%rax
  402ccc:	74 6f 20 
  402ccf:	48 ba 63 72 65 61 74 	movabs $0x7320657461657263,%rdx
  402cd6:	65 20 73 
  402cd9:	48 89 45 10          	mov    %rax,0x10(%rbp)
  402cdd:	48 89 55 18          	mov    %rdx,0x18(%rbp)
  402ce1:	c7 45 20 6f 63 6b 65 	movl   $0x656b636f,0x20(%rbp)
  402ce8:	66 c7 45 24 74 00    	movw   $0x74,0x24(%rbp)
  402cee:	b8 ff ff ff ff       	mov    $0xffffffff,%eax
  402cf3:	eb 99                	jmp    402c8e <init_driver+0xe3>
  402cf5:	48 b8 45 72 72 6f 72 	movabs $0x44203a726f727245,%rax
  402cfc:	3a 20 44 
  402cff:	48 ba 4e 53 20 69 73 	movabs $0x6e7520736920534e,%rdx
  402d06:	20 75 6e 
  402d09:	48 89 45 00          	mov    %rax,0x0(%rbp)
  402d0d:	48 89 55 08          	mov    %rdx,0x8(%rbp)
  402d11:	48 b8 61 62 6c 65 20 	movabs $0x206f7420656c6261,%rax
  402d18:	74 6f 20 
  402d1b:	48 ba 72 65 73 6f 6c 	movabs $0x2065766c6f736572,%rdx
  402d22:	76 65 20 
  402d25:	48 89 45 10          	mov    %rax,0x10(%rbp)
  402d29:	48 89 55 18          	mov    %rdx,0x18(%rbp)
  402d2d:	48 b8 73 65 72 76 65 	movabs $0x6120726576726573,%rax
  402d34:	72 20 61 
  402d37:	48 89 45 20          	mov    %rax,0x20(%rbp)
  402d3b:	c7 45 28 64 64 72 65 	movl   $0x65726464,0x28(%rbp)
  402d42:	66 c7 45 2c 73 73    	movw   $0x7373,0x2c(%rbp)
  402d48:	c6 45 2e 00          	movb   $0x0,0x2e(%rbp)
  402d4c:	89 df                	mov    %ebx,%edi
  402d4e:	e8 dd df ff ff       	callq  400d30 <close@plt>
  402d53:	b8 ff ff ff ff       	mov    $0xffffffff,%eax
  402d58:	e9 31 ff ff ff       	jmpq   402c8e <init_driver+0xe3>
  402d5d:	48 b8 45 72 72 6f 72 	movabs $0x55203a726f727245,%rax
  402d64:	3a 20 55 
  402d67:	48 ba 6e 61 62 6c 65 	movabs $0x6f7420656c62616e,%rdx
  402d6e:	20 74 6f 
  402d71:	48 89 45 00          	mov    %rax,0x0(%rbp)
  402d75:	48 89 55 08          	mov    %rdx,0x8(%rbp)
  402d79:	48 b8 20 63 6f 6e 6e 	movabs $0x7463656e6e6f6320,%rax
  402d80:	65 63 74 
  402d83:	48 ba 20 74 6f 20 73 	movabs $0x76726573206f7420,%rdx
  402d8a:	65 72 76 
  402d8d:	48 89 45 10          	mov    %rax,0x10(%rbp)
  402d91:	48 89 55 18          	mov    %rdx,0x18(%rbp)
  402d95:	66 c7 45 20 65 72    	movw   $0x7265,0x20(%rbp)
  402d9b:	c6 45 22 00          	movb   $0x0,0x22(%rbp)
  402d9f:	89 df                	mov    %ebx,%edi
  402da1:	e8 8a df ff ff       	callq  400d30 <close@plt>
  402da6:	b8 ff ff ff ff       	mov    $0xffffffff,%eax
  402dab:	e9 de fe ff ff       	jmpq   402c8e <init_driver+0xe3>
  402db0:	e8 3b df ff ff       	callq  400cf0 <__stack_chk_fail@plt>

0000000000402db5 <driver_post>:
  402db5:	53                   	push   %rbx
  402db6:	4c 89 cb             	mov    %r9,%rbx
  402db9:	45 85 c0             	test   %r8d,%r8d
  402dbc:	75 18                	jne    402dd6 <driver_post+0x21>
  402dbe:	48 85 ff             	test   %rdi,%rdi
  402dc1:	74 05                	je     402dc8 <driver_post+0x13>
  402dc3:	80 3f 00             	cmpb   $0x0,(%rdi)
  402dc6:	75 35                	jne    402dfd <driver_post+0x48>
  402dc8:	66 c7 03 4f 4b       	movw   $0x4b4f,(%rbx)
  402dcd:	c6 43 02 00          	movb   $0x0,0x2(%rbx)
  402dd1:	44 89 c0             	mov    %r8d,%eax
  402dd4:	5b                   	pop    %rbx
  402dd5:	c3                   	retq   
  402dd6:	48 89 ca             	mov    %rcx,%rdx
  402dd9:	be 0d 37 40 00       	mov    $0x40370d,%esi
  402dde:	bf 01 00 00 00       	mov    $0x1,%edi
  402de3:	b8 00 00 00 00       	mov    $0x0,%eax
  402de8:	e8 13 e0 ff ff       	callq  400e00 <__printf_chk@plt>
  402ded:	66 c7 03 4f 4b       	movw   $0x4b4f,(%rbx)
  402df2:	c6 43 02 00          	movb   $0x0,0x2(%rbx)
  402df6:	b8 00 00 00 00       	mov    $0x0,%eax
  402dfb:	eb d7                	jmp    402dd4 <driver_post+0x1f>
  402dfd:	48 83 ec 08          	sub    $0x8,%rsp
  402e01:	41 51                	push   %r9
  402e03:	49 89 c9             	mov    %rcx,%r9
  402e06:	49 89 d0             	mov    %rdx,%r8
  402e09:	48 89 f9             	mov    %rdi,%rcx
  402e0c:	48 89 f2             	mov    %rsi,%rdx
  402e0f:	be 9a 3c 00 00       	mov    $0x3c9a,%esi
  402e14:	bf f5 36 40 00       	mov    $0x4036f5,%edi
  402e19:	e8 b6 f5 ff ff       	callq  4023d4 <submitr>
  402e1e:	48 83 c4 10          	add    $0x10,%rsp
  402e22:	eb b0                	jmp    402dd4 <driver_post+0x1f>

0000000000402e24 <check>:
  402e24:	89 f8                	mov    %edi,%eax
  402e26:	c1 e8 1c             	shr    $0x1c,%eax
  402e29:	85 c0                	test   %eax,%eax
  402e2b:	74 1d                	je     402e4a <check+0x26>
  402e2d:	b9 00 00 00 00       	mov    $0x0,%ecx
  402e32:	83 f9 1f             	cmp    $0x1f,%ecx
  402e35:	7f 0d                	jg     402e44 <check+0x20>
  402e37:	89 f8                	mov    %edi,%eax
  402e39:	d3 e8                	shr    %cl,%eax
  402e3b:	3c 0a                	cmp    $0xa,%al
  402e3d:	74 11                	je     402e50 <check+0x2c>
  402e3f:	83 c1 08             	add    $0x8,%ecx
  402e42:	eb ee                	jmp    402e32 <check+0xe>
  402e44:	b8 01 00 00 00       	mov    $0x1,%eax
  402e49:	c3                   	retq   
  402e4a:	b8 00 00 00 00       	mov    $0x0,%eax
  402e4f:	c3                   	retq   
  402e50:	b8 00 00 00 00       	mov    $0x0,%eax
  402e55:	c3                   	retq   

0000000000402e56 <gencookie>:
  402e56:	53                   	push   %rbx
  402e57:	83 c7 01             	add    $0x1,%edi
  402e5a:	e8 41 de ff ff       	callq  400ca0 <srandom@plt>
  402e5f:	e8 5c df ff ff       	callq  400dc0 <random@plt>
  402e64:	89 c3                	mov    %eax,%ebx
  402e66:	89 c7                	mov    %eax,%edi
  402e68:	e8 b7 ff ff ff       	callq  402e24 <check>
  402e6d:	85 c0                	test   %eax,%eax
  402e6f:	74 ee                	je     402e5f <gencookie+0x9>
  402e71:	89 d8                	mov    %ebx,%eax
  402e73:	5b                   	pop    %rbx
  402e74:	c3                   	retq   
  402e75:	66 2e 0f 1f 84 00 00 	nopw   %cs:0x0(%rax,%rax,1)
  402e7c:	00 00 00 
  402e7f:	90                   	nop

0000000000402e80 <__libc_csu_init>:
  402e80:	41 57                	push   %r15
  402e82:	41 56                	push   %r14
  402e84:	41 89 ff             	mov    %edi,%r15d
  402e87:	41 55                	push   %r13
  402e89:	41 54                	push   %r12
  402e8b:	4c 8d 25 7e 1f 20 00 	lea    0x201f7e(%rip),%r12        # 604e10 <__frame_dummy_init_array_entry>
  402e92:	55                   	push   %rbp
  402e93:	48 8d 2d 7e 1f 20 00 	lea    0x201f7e(%rip),%rbp        # 604e18 <__init_array_end>
  402e9a:	53                   	push   %rbx
  402e9b:	49 89 f6             	mov    %rsi,%r14
  402e9e:	49 89 d5             	mov    %rdx,%r13
  402ea1:	4c 29 e5             	sub    %r12,%rbp
  402ea4:	48 83 ec 08          	sub    $0x8,%rsp
  402ea8:	48 c1 fd 03          	sar    $0x3,%rbp
  402eac:	e8 97 dd ff ff       	callq  400c48 <_init>
  402eb1:	48 85 ed             	test   %rbp,%rbp
  402eb4:	74 20                	je     402ed6 <__libc_csu_init+0x56>
  402eb6:	31 db                	xor    %ebx,%ebx
  402eb8:	0f 1f 84 00 00 00 00 	nopl   0x0(%rax,%rax,1)
  402ebf:	00 
  402ec0:	4c 89 ea             	mov    %r13,%rdx
  402ec3:	4c 89 f6             	mov    %r14,%rsi
  402ec6:	44 89 ff             	mov    %r15d,%edi
  402ec9:	41 ff 14 dc          	callq  *(%r12,%rbx,8)
  402ecd:	48 83 c3 01          	add    $0x1,%rbx
  402ed1:	48 39 eb             	cmp    %rbp,%rbx
  402ed4:	75 ea                	jne    402ec0 <__libc_csu_init+0x40>
  402ed6:	48 83 c4 08          	add    $0x8,%rsp
  402eda:	5b                   	pop    %rbx
  402edb:	5d                   	pop    %rbp
  402edc:	41 5c                	pop    %r12
  402ede:	41 5d                	pop    %r13
  402ee0:	41 5e                	pop    %r14
  402ee2:	41 5f                	pop    %r15
  402ee4:	c3                   	retq   
  402ee5:	90                   	nop
  402ee6:	66 2e 0f 1f 84 00 00 	nopw   %cs:0x0(%rax,%rax,1)
  402eed:	00 00 00 

0000000000402ef0 <__libc_csu_fini>:
  402ef0:	f3 c3                	repz retq 

Disassembly of section .fini:

0000000000402ef4 <_fini>:
  402ef4:	48 83 ec 08          	sub    $0x8,%rsp
  402ef8:	48 83 c4 08          	add    $0x8,%rsp
  402efc:	c3                   	retq   
