
rtarget:     file format elf64-x86-64


Disassembly of section .init:

0000000000400c48 <_init>:
  400c48:	48 83 ec 08          	sub    $0x8,%rsp
  400c4c:	48 8b 05 a5 43 20 00 	mov    0x2043a5(%rip),%rax        # 604ff8 <__gmon_start__>
  400c53:	48 85 c0             	test   %rax,%rax
  400c56:	74 05                	je     400c5d <_init+0x15>
  400c58:	e8 43 02 00 00       	callq  400ea0 <.plt.got>
  400c5d:	48 83 c4 08          	add    $0x8,%rsp
  400c61:	c3                   	retq   

Disassembly of section .plt:

0000000000400c70 <.plt>:
  400c70:	ff 35 92 43 20 00    	pushq  0x204392(%rip)        # 605008 <_GLOBAL_OFFSET_TABLE_+0x8>
  400c76:	ff 25 94 43 20 00    	jmpq   *0x204394(%rip)        # 605010 <_GLOBAL_OFFSET_TABLE_+0x10>
  400c7c:	0f 1f 40 00          	nopl   0x0(%rax)

0000000000400c80 <strcasecmp@plt>:
  400c80:	ff 25 92 43 20 00    	jmpq   *0x204392(%rip)        # 605018 <strcasecmp@GLIBC_2.2.5>
  400c86:	68 00 00 00 00       	pushq  $0x0
  400c8b:	e9 e0 ff ff ff       	jmpq   400c70 <.plt>

0000000000400c90 <__errno_location@plt>:
  400c90:	ff 25 8a 43 20 00    	jmpq   *0x20438a(%rip)        # 605020 <__errno_location@GLIBC_2.2.5>
  400c96:	68 01 00 00 00       	pushq  $0x1
  400c9b:	e9 d0 ff ff ff       	jmpq   400c70 <.plt>

0000000000400ca0 <srandom@plt>:
  400ca0:	ff 25 82 43 20 00    	jmpq   *0x204382(%rip)        # 605028 <srandom@GLIBC_2.2.5>
  400ca6:	68 02 00 00 00       	pushq  $0x2
  400cab:	e9 c0 ff ff ff       	jmpq   400c70 <.plt>

0000000000400cb0 <strncmp@plt>:
  400cb0:	ff 25 7a 43 20 00    	jmpq   *0x20437a(%rip)        # 605030 <strncmp@GLIBC_2.2.5>
  400cb6:	68 03 00 00 00       	pushq  $0x3
  400cbb:	e9 b0 ff ff ff       	jmpq   400c70 <.plt>

0000000000400cc0 <strcpy@plt>:
  400cc0:	ff 25 72 43 20 00    	jmpq   *0x204372(%rip)        # 605038 <strcpy@GLIBC_2.2.5>
  400cc6:	68 04 00 00 00       	pushq  $0x4
  400ccb:	e9 a0 ff ff ff       	jmpq   400c70 <.plt>

0000000000400cd0 <puts@plt>:
  400cd0:	ff 25 6a 43 20 00    	jmpq   *0x20436a(%rip)        # 605040 <puts@GLIBC_2.2.5>
  400cd6:	68 05 00 00 00       	pushq  $0x5
  400cdb:	e9 90 ff ff ff       	jmpq   400c70 <.plt>

0000000000400ce0 <write@plt>:
  400ce0:	ff 25 62 43 20 00    	jmpq   *0x204362(%rip)        # 605048 <write@GLIBC_2.2.5>
  400ce6:	68 06 00 00 00       	pushq  $0x6
  400ceb:	e9 80 ff ff ff       	jmpq   400c70 <.plt>

0000000000400cf0 <__stack_chk_fail@plt>:
  400cf0:	ff 25 5a 43 20 00    	jmpq   *0x20435a(%rip)        # 605050 <__stack_chk_fail@GLIBC_2.4>
  400cf6:	68 07 00 00 00       	pushq  $0x7
  400cfb:	e9 70 ff ff ff       	jmpq   400c70 <.plt>

0000000000400d00 <mmap@plt>:
  400d00:	ff 25 52 43 20 00    	jmpq   *0x204352(%rip)        # 605058 <mmap@GLIBC_2.2.5>
  400d06:	68 08 00 00 00       	pushq  $0x8
  400d0b:	e9 60 ff ff ff       	jmpq   400c70 <.plt>

0000000000400d10 <memset@plt>:
  400d10:	ff 25 4a 43 20 00    	jmpq   *0x20434a(%rip)        # 605060 <memset@GLIBC_2.2.5>
  400d16:	68 09 00 00 00       	pushq  $0x9
  400d1b:	e9 50 ff ff ff       	jmpq   400c70 <.plt>

0000000000400d20 <alarm@plt>:
  400d20:	ff 25 42 43 20 00    	jmpq   *0x204342(%rip)        # 605068 <alarm@GLIBC_2.2.5>
  400d26:	68 0a 00 00 00       	pushq  $0xa
  400d2b:	e9 40 ff ff ff       	jmpq   400c70 <.plt>

0000000000400d30 <close@plt>:
  400d30:	ff 25 3a 43 20 00    	jmpq   *0x20433a(%rip)        # 605070 <close@GLIBC_2.2.5>
  400d36:	68 0b 00 00 00       	pushq  $0xb
  400d3b:	e9 30 ff ff ff       	jmpq   400c70 <.plt>

0000000000400d40 <read@plt>:
  400d40:	ff 25 32 43 20 00    	jmpq   *0x204332(%rip)        # 605078 <read@GLIBC_2.2.5>
  400d46:	68 0c 00 00 00       	pushq  $0xc
  400d4b:	e9 20 ff ff ff       	jmpq   400c70 <.plt>

0000000000400d50 <__libc_start_main@plt>:
  400d50:	ff 25 2a 43 20 00    	jmpq   *0x20432a(%rip)        # 605080 <__libc_start_main@GLIBC_2.2.5>
  400d56:	68 0d 00 00 00       	pushq  $0xd
  400d5b:	e9 10 ff ff ff       	jmpq   400c70 <.plt>

0000000000400d60 <signal@plt>:
  400d60:	ff 25 22 43 20 00    	jmpq   *0x204322(%rip)        # 605088 <signal@GLIBC_2.2.5>
  400d66:	68 0e 00 00 00       	pushq  $0xe
  400d6b:	e9 00 ff ff ff       	jmpq   400c70 <.plt>

0000000000400d70 <gethostbyname@plt>:
  400d70:	ff 25 1a 43 20 00    	jmpq   *0x20431a(%rip)        # 605090 <gethostbyname@GLIBC_2.2.5>
  400d76:	68 0f 00 00 00       	pushq  $0xf
  400d7b:	e9 f0 fe ff ff       	jmpq   400c70 <.plt>

0000000000400d80 <__memmove_chk@plt>:
  400d80:	ff 25 12 43 20 00    	jmpq   *0x204312(%rip)        # 605098 <__memmove_chk@GLIBC_2.3.4>
  400d86:	68 10 00 00 00       	pushq  $0x10
  400d8b:	e9 e0 fe ff ff       	jmpq   400c70 <.plt>

0000000000400d90 <strtol@plt>:
  400d90:	ff 25 0a 43 20 00    	jmpq   *0x20430a(%rip)        # 6050a0 <strtol@GLIBC_2.2.5>
  400d96:	68 11 00 00 00       	pushq  $0x11
  400d9b:	e9 d0 fe ff ff       	jmpq   400c70 <.plt>

0000000000400da0 <memcpy@plt>:
  400da0:	ff 25 02 43 20 00    	jmpq   *0x204302(%rip)        # 6050a8 <memcpy@GLIBC_2.14>
  400da6:	68 12 00 00 00       	pushq  $0x12
  400dab:	e9 c0 fe ff ff       	jmpq   400c70 <.plt>

0000000000400db0 <time@plt>:
  400db0:	ff 25 fa 42 20 00    	jmpq   *0x2042fa(%rip)        # 6050b0 <time@GLIBC_2.2.5>
  400db6:	68 13 00 00 00       	pushq  $0x13
  400dbb:	e9 b0 fe ff ff       	jmpq   400c70 <.plt>

0000000000400dc0 <random@plt>:
  400dc0:	ff 25 f2 42 20 00    	jmpq   *0x2042f2(%rip)        # 6050b8 <random@GLIBC_2.2.5>
  400dc6:	68 14 00 00 00       	pushq  $0x14
  400dcb:	e9 a0 fe ff ff       	jmpq   400c70 <.plt>

0000000000400dd0 <_IO_getc@plt>:
  400dd0:	ff 25 ea 42 20 00    	jmpq   *0x2042ea(%rip)        # 6050c0 <_IO_getc@GLIBC_2.2.5>
  400dd6:	68 15 00 00 00       	pushq  $0x15
  400ddb:	e9 90 fe ff ff       	jmpq   400c70 <.plt>

0000000000400de0 <__isoc99_sscanf@plt>:
  400de0:	ff 25 e2 42 20 00    	jmpq   *0x2042e2(%rip)        # 6050c8 <__isoc99_sscanf@GLIBC_2.7>
  400de6:	68 16 00 00 00       	pushq  $0x16
  400deb:	e9 80 fe ff ff       	jmpq   400c70 <.plt>

0000000000400df0 <munmap@plt>:
  400df0:	ff 25 da 42 20 00    	jmpq   *0x2042da(%rip)        # 6050d0 <munmap@GLIBC_2.2.5>
  400df6:	68 17 00 00 00       	pushq  $0x17
  400dfb:	e9 70 fe ff ff       	jmpq   400c70 <.plt>

0000000000400e00 <__printf_chk@plt>:
  400e00:	ff 25 d2 42 20 00    	jmpq   *0x2042d2(%rip)        # 6050d8 <__printf_chk@GLIBC_2.3.4>
  400e06:	68 18 00 00 00       	pushq  $0x18
  400e0b:	e9 60 fe ff ff       	jmpq   400c70 <.plt>

0000000000400e10 <fopen@plt>:
  400e10:	ff 25 ca 42 20 00    	jmpq   *0x2042ca(%rip)        # 6050e0 <fopen@GLIBC_2.2.5>
  400e16:	68 19 00 00 00       	pushq  $0x19
  400e1b:	e9 50 fe ff ff       	jmpq   400c70 <.plt>

0000000000400e20 <getopt@plt>:
  400e20:	ff 25 c2 42 20 00    	jmpq   *0x2042c2(%rip)        # 6050e8 <getopt@GLIBC_2.2.5>
  400e26:	68 1a 00 00 00       	pushq  $0x1a
  400e2b:	e9 40 fe ff ff       	jmpq   400c70 <.plt>

0000000000400e30 <strtoul@plt>:
  400e30:	ff 25 ba 42 20 00    	jmpq   *0x2042ba(%rip)        # 6050f0 <strtoul@GLIBC_2.2.5>
  400e36:	68 1b 00 00 00       	pushq  $0x1b
  400e3b:	e9 30 fe ff ff       	jmpq   400c70 <.plt>

0000000000400e40 <gethostname@plt>:
  400e40:	ff 25 b2 42 20 00    	jmpq   *0x2042b2(%rip)        # 6050f8 <gethostname@GLIBC_2.2.5>
  400e46:	68 1c 00 00 00       	pushq  $0x1c
  400e4b:	e9 20 fe ff ff       	jmpq   400c70 <.plt>

0000000000400e50 <exit@plt>:
  400e50:	ff 25 aa 42 20 00    	jmpq   *0x2042aa(%rip)        # 605100 <exit@GLIBC_2.2.5>
  400e56:	68 1d 00 00 00       	pushq  $0x1d
  400e5b:	e9 10 fe ff ff       	jmpq   400c70 <.plt>

0000000000400e60 <connect@plt>:
  400e60:	ff 25 a2 42 20 00    	jmpq   *0x2042a2(%rip)        # 605108 <connect@GLIBC_2.2.5>
  400e66:	68 1e 00 00 00       	pushq  $0x1e
  400e6b:	e9 00 fe ff ff       	jmpq   400c70 <.plt>

0000000000400e70 <__fprintf_chk@plt>:
  400e70:	ff 25 9a 42 20 00    	jmpq   *0x20429a(%rip)        # 605110 <__fprintf_chk@GLIBC_2.3.4>
  400e76:	68 1f 00 00 00       	pushq  $0x1f
  400e7b:	e9 f0 fd ff ff       	jmpq   400c70 <.plt>

0000000000400e80 <__sprintf_chk@plt>:
  400e80:	ff 25 92 42 20 00    	jmpq   *0x204292(%rip)        # 605118 <__sprintf_chk@GLIBC_2.3.4>
  400e86:	68 20 00 00 00       	pushq  $0x20
  400e8b:	e9 e0 fd ff ff       	jmpq   400c70 <.plt>

0000000000400e90 <socket@plt>:
  400e90:	ff 25 8a 42 20 00    	jmpq   *0x20428a(%rip)        # 605120 <socket@GLIBC_2.2.5>
  400e96:	68 21 00 00 00       	pushq  $0x21
  400e9b:	e9 d0 fd ff ff       	jmpq   400c70 <.plt>

Disassembly of section .plt.got:

0000000000400ea0 <.plt.got>:
  400ea0:	ff 25 52 41 20 00    	jmpq   *0x204152(%rip)        # 604ff8 <__gmon_start__>
  400ea6:	66 90                	xchg   %ax,%ax

Disassembly of section .text:

0000000000400eb0 <_start>:
  400eb0:	31 ed                	xor    %ebp,%ebp
  400eb2:	49 89 d1             	mov    %rdx,%r9
  400eb5:	5e                   	pop    %rsi
  400eb6:	48 89 e2             	mov    %rsp,%rdx
  400eb9:	48 83 e4 f0          	and    $0xfffffffffffffff0,%rsp
  400ebd:	50                   	push   %rax
  400ebe:	54                   	push   %rsp
  400ebf:	49 c7 c0 10 30 40 00 	mov    $0x403010,%r8
  400ec6:	48 c7 c1 a0 2f 40 00 	mov    $0x402fa0,%rcx
  400ecd:	48 c7 c7 b5 11 40 00 	mov    $0x4011b5,%rdi
  400ed4:	e8 77 fe ff ff       	callq  400d50 <__libc_start_main@plt>
  400ed9:	f4                   	hlt    
  400eda:	66 0f 1f 44 00 00    	nopw   0x0(%rax,%rax,1)

0000000000400ee0 <deregister_tm_clones>:
  400ee0:	b8 b7 54 60 00       	mov    $0x6054b7,%eax
  400ee5:	55                   	push   %rbp
  400ee6:	48 2d b0 54 60 00    	sub    $0x6054b0,%rax
  400eec:	48 83 f8 0e          	cmp    $0xe,%rax
  400ef0:	48 89 e5             	mov    %rsp,%rbp
  400ef3:	76 1b                	jbe    400f10 <deregister_tm_clones+0x30>
  400ef5:	b8 00 00 00 00       	mov    $0x0,%eax
  400efa:	48 85 c0             	test   %rax,%rax
  400efd:	74 11                	je     400f10 <deregister_tm_clones+0x30>
  400eff:	5d                   	pop    %rbp
  400f00:	bf b0 54 60 00       	mov    $0x6054b0,%edi
  400f05:	ff e0                	jmpq   *%rax
  400f07:	66 0f 1f 84 00 00 00 	nopw   0x0(%rax,%rax,1)
  400f0e:	00 00 
  400f10:	5d                   	pop    %rbp
  400f11:	c3                   	retq   
  400f12:	0f 1f 40 00          	nopl   0x0(%rax)
  400f16:	66 2e 0f 1f 84 00 00 	nopw   %cs:0x0(%rax,%rax,1)
  400f1d:	00 00 00 

0000000000400f20 <register_tm_clones>:
  400f20:	be b0 54 60 00       	mov    $0x6054b0,%esi
  400f25:	55                   	push   %rbp
  400f26:	48 81 ee b0 54 60 00 	sub    $0x6054b0,%rsi
  400f2d:	48 c1 fe 03          	sar    $0x3,%rsi
  400f31:	48 89 e5             	mov    %rsp,%rbp
  400f34:	48 89 f0             	mov    %rsi,%rax
  400f37:	48 c1 e8 3f          	shr    $0x3f,%rax
  400f3b:	48 01 c6             	add    %rax,%rsi
  400f3e:	48 d1 fe             	sar    %rsi
  400f41:	74 15                	je     400f58 <register_tm_clones+0x38>
  400f43:	b8 00 00 00 00       	mov    $0x0,%eax
  400f48:	48 85 c0             	test   %rax,%rax
  400f4b:	74 0b                	je     400f58 <register_tm_clones+0x38>
  400f4d:	5d                   	pop    %rbp
  400f4e:	bf b0 54 60 00       	mov    $0x6054b0,%edi
  400f53:	ff e0                	jmpq   *%rax
  400f55:	0f 1f 00             	nopl   (%rax)
  400f58:	5d                   	pop    %rbp
  400f59:	c3                   	retq   
  400f5a:	66 0f 1f 44 00 00    	nopw   0x0(%rax,%rax,1)

0000000000400f60 <__do_global_dtors_aux>:
  400f60:	80 3d 81 45 20 00 00 	cmpb   $0x0,0x204581(%rip)        # 6054e8 <completed.7594>
  400f67:	75 11                	jne    400f7a <__do_global_dtors_aux+0x1a>
  400f69:	55                   	push   %rbp
  400f6a:	48 89 e5             	mov    %rsp,%rbp
  400f6d:	e8 6e ff ff ff       	callq  400ee0 <deregister_tm_clones>
  400f72:	5d                   	pop    %rbp
  400f73:	c6 05 6e 45 20 00 01 	movb   $0x1,0x20456e(%rip)        # 6054e8 <completed.7594>
  400f7a:	f3 c3                	repz retq 
  400f7c:	0f 1f 40 00          	nopl   0x0(%rax)

0000000000400f80 <frame_dummy>:
  400f80:	bf 20 4e 60 00       	mov    $0x604e20,%edi
  400f85:	48 83 3f 00          	cmpq   $0x0,(%rdi)
  400f89:	75 05                	jne    400f90 <frame_dummy+0x10>
  400f8b:	eb 93                	jmp    400f20 <register_tm_clones>
  400f8d:	0f 1f 00             	nopl   (%rax)
  400f90:	b8 00 00 00 00       	mov    $0x0,%eax
  400f95:	48 85 c0             	test   %rax,%rax
  400f98:	74 f1                	je     400f8b <frame_dummy+0xb>
  400f9a:	55                   	push   %rbp
  400f9b:	48 89 e5             	mov    %rsp,%rbp
  400f9e:	ff d0                	callq  *%rax
  400fa0:	5d                   	pop    %rbp
  400fa1:	e9 7a ff ff ff       	jmpq   400f20 <register_tm_clones>

0000000000400fa6 <usage>:
  400fa6:	48 83 ec 08          	sub    $0x8,%rsp
  400faa:	48 89 fa             	mov    %rdi,%rdx
  400fad:	83 3d 74 45 20 00 00 	cmpl   $0x0,0x204574(%rip)        # 605528 <is_checker>
  400fb4:	74 3e                	je     400ff4 <usage+0x4e>
  400fb6:	be 28 30 40 00       	mov    $0x403028,%esi
  400fbb:	bf 01 00 00 00       	mov    $0x1,%edi
  400fc0:	b8 00 00 00 00       	mov    $0x0,%eax
  400fc5:	e8 36 fe ff ff       	callq  400e00 <__printf_chk@plt>
  400fca:	bf 60 30 40 00       	mov    $0x403060,%edi
  400fcf:	e8 fc fc ff ff       	callq  400cd0 <puts@plt>
  400fd4:	bf d8 31 40 00       	mov    $0x4031d8,%edi
  400fd9:	e8 f2 fc ff ff       	callq  400cd0 <puts@plt>
  400fde:	bf 88 30 40 00       	mov    $0x403088,%edi
  400fe3:	e8 e8 fc ff ff       	callq  400cd0 <puts@plt>
  400fe8:	bf f2 31 40 00       	mov    $0x4031f2,%edi
  400fed:	e8 de fc ff ff       	callq  400cd0 <puts@plt>
  400ff2:	eb 32                	jmp    401026 <usage+0x80>
  400ff4:	be 0e 32 40 00       	mov    $0x40320e,%esi
  400ff9:	bf 01 00 00 00       	mov    $0x1,%edi
  400ffe:	b8 00 00 00 00       	mov    $0x0,%eax
  401003:	e8 f8 fd ff ff       	callq  400e00 <__printf_chk@plt>
  401008:	bf b0 30 40 00       	mov    $0x4030b0,%edi
  40100d:	e8 be fc ff ff       	callq  400cd0 <puts@plt>
  401012:	bf d8 30 40 00       	mov    $0x4030d8,%edi
  401017:	e8 b4 fc ff ff       	callq  400cd0 <puts@plt>
  40101c:	bf 2c 32 40 00       	mov    $0x40322c,%edi
  401021:	e8 aa fc ff ff       	callq  400cd0 <puts@plt>
  401026:	bf 00 00 00 00       	mov    $0x0,%edi
  40102b:	e8 20 fe ff ff       	callq  400e50 <exit@plt>

0000000000401030 <initialize_target>:
  401030:	55                   	push   %rbp
  401031:	53                   	push   %rbx
  401032:	48 81 ec 18 21 00 00 	sub    $0x2118,%rsp
  401039:	89 f5                	mov    %esi,%ebp
  40103b:	64 48 8b 04 25 28 00 	mov    %fs:0x28,%rax
  401042:	00 00 
  401044:	48 89 84 24 08 21 00 	mov    %rax,0x2108(%rsp)
  40104b:	00 
  40104c:	31 c0                	xor    %eax,%eax
  40104e:	89 3d c4 44 20 00    	mov    %edi,0x2044c4(%rip)        # 605518 <check_level>
  401054:	8b 3d 0e 41 20 00    	mov    0x20410e(%rip),%edi        # 605168 <target_id>
  40105a:	e8 19 1f 00 00       	callq  402f78 <gencookie>
  40105f:	89 05 bf 44 20 00    	mov    %eax,0x2044bf(%rip)        # 605524 <cookie>
  401065:	89 c7                	mov    %eax,%edi
  401067:	e8 0c 1f 00 00       	callq  402f78 <gencookie>
  40106c:	89 05 ae 44 20 00    	mov    %eax,0x2044ae(%rip)        # 605520 <authkey>
  401072:	8b 05 f0 40 20 00    	mov    0x2040f0(%rip),%eax        # 605168 <target_id>
  401078:	8d 78 01             	lea    0x1(%rax),%edi
  40107b:	e8 20 fc ff ff       	callq  400ca0 <srandom@plt>
  401080:	e8 3b fd ff ff       	callq  400dc0 <random@plt>
  401085:	89 c7                	mov    %eax,%edi
  401087:	e8 03 03 00 00       	callq  40138f <scramble>
  40108c:	89 c3                	mov    %eax,%ebx
  40108e:	85 ed                	test   %ebp,%ebp
  401090:	74 18                	je     4010aa <initialize_target+0x7a>
  401092:	bf 00 00 00 00       	mov    $0x0,%edi
  401097:	e8 14 fd ff ff       	callq  400db0 <time@plt>
  40109c:	89 c7                	mov    %eax,%edi
  40109e:	e8 fd fb ff ff       	callq  400ca0 <srandom@plt>
  4010a3:	e8 18 fd ff ff       	callq  400dc0 <random@plt>
  4010a8:	eb 05                	jmp    4010af <initialize_target+0x7f>
  4010aa:	b8 00 00 00 00       	mov    $0x0,%eax
  4010af:	01 c3                	add    %eax,%ebx
  4010b1:	0f b7 db             	movzwl %bx,%ebx
  4010b4:	8d 04 dd 00 01 00 00 	lea    0x100(,%rbx,8),%eax
  4010bb:	89 c0                	mov    %eax,%eax
  4010bd:	48 89 05 dc 43 20 00 	mov    %rax,0x2043dc(%rip)        # 6054a0 <buf_offset>
  4010c4:	c6 05 7d 50 20 00 72 	movb   $0x72,0x20507d(%rip)        # 606148 <target_prefix>
  4010cb:	83 3d d6 43 20 00 00 	cmpl   $0x0,0x2043d6(%rip)        # 6054a8 <notify>
  4010d2:	0f 84 bb 00 00 00    	je     401193 <initialize_target+0x163>
  4010d8:	83 3d 49 44 20 00 00 	cmpl   $0x0,0x204449(%rip)        # 605528 <is_checker>
  4010df:	0f 85 ae 00 00 00    	jne    401193 <initialize_target+0x163>
  4010e5:	be 00 01 00 00       	mov    $0x100,%esi
  4010ea:	48 89 e7             	mov    %rsp,%rdi
  4010ed:	e8 4e fd ff ff       	callq  400e40 <gethostname@plt>
  4010f2:	85 c0                	test   %eax,%eax
  4010f4:	74 25                	je     40111b <initialize_target+0xeb>
  4010f6:	bf 08 31 40 00       	mov    $0x403108,%edi
  4010fb:	e8 d0 fb ff ff       	callq  400cd0 <puts@plt>
  401100:	bf 08 00 00 00       	mov    $0x8,%edi
  401105:	e8 46 fd ff ff       	callq  400e50 <exit@plt>
  40110a:	48 89 e6             	mov    %rsp,%rsi
  40110d:	e8 6e fb ff ff       	callq  400c80 <strcasecmp@plt>
  401112:	85 c0                	test   %eax,%eax
  401114:	74 21                	je     401137 <initialize_target+0x107>
  401116:	83 c3 01             	add    $0x1,%ebx
  401119:	eb 05                	jmp    401120 <initialize_target+0xf0>
  40111b:	bb 00 00 00 00       	mov    $0x0,%ebx
  401120:	48 63 c3             	movslq %ebx,%rax
  401123:	48 8b 3c c5 80 51 60 	mov    0x605180(,%rax,8),%rdi
  40112a:	00 
  40112b:	48 85 ff             	test   %rdi,%rdi
  40112e:	75 da                	jne    40110a <initialize_target+0xda>
  401130:	b8 00 00 00 00       	mov    $0x0,%eax
  401135:	eb 05                	jmp    40113c <initialize_target+0x10c>
  401137:	b8 01 00 00 00       	mov    $0x1,%eax
  40113c:	85 c0                	test   %eax,%eax
  40113e:	75 1c                	jne    40115c <initialize_target+0x12c>
  401140:	48 89 e2             	mov    %rsp,%rdx
  401143:	be 40 31 40 00       	mov    $0x403140,%esi
  401148:	bf 01 00 00 00       	mov    $0x1,%edi
  40114d:	e8 ae fc ff ff       	callq  400e00 <__printf_chk@plt>
  401152:	bf 08 00 00 00       	mov    $0x8,%edi
  401157:	e8 f4 fc ff ff       	callq  400e50 <exit@plt>
  40115c:	48 8d bc 24 00 01 00 	lea    0x100(%rsp),%rdi
  401163:	00 
  401164:	e8 64 1b 00 00       	callq  402ccd <init_driver>
  401169:	85 c0                	test   %eax,%eax
  40116b:	79 26                	jns    401193 <initialize_target+0x163>
  40116d:	48 8d 94 24 00 01 00 	lea    0x100(%rsp),%rdx
  401174:	00 
  401175:	be 80 31 40 00       	mov    $0x403180,%esi
  40117a:	bf 01 00 00 00       	mov    $0x1,%edi
  40117f:	b8 00 00 00 00       	mov    $0x0,%eax
  401184:	e8 77 fc ff ff       	callq  400e00 <__printf_chk@plt>
  401189:	bf 08 00 00 00       	mov    $0x8,%edi
  40118e:	e8 bd fc ff ff       	callq  400e50 <exit@plt>
  401193:	48 8b 84 24 08 21 00 	mov    0x2108(%rsp),%rax
  40119a:	00 
  40119b:	64 48 33 04 25 28 00 	xor    %fs:0x28,%rax
  4011a2:	00 00 
  4011a4:	74 05                	je     4011ab <initialize_target+0x17b>
  4011a6:	e8 45 fb ff ff       	callq  400cf0 <__stack_chk_fail@plt>
  4011ab:	48 81 c4 18 21 00 00 	add    $0x2118,%rsp
  4011b2:	5b                   	pop    %rbx
  4011b3:	5d                   	pop    %rbp
  4011b4:	c3                   	retq   

00000000004011b5 <main>:
  4011b5:	41 56                	push   %r14
  4011b7:	41 55                	push   %r13
  4011b9:	41 54                	push   %r12
  4011bb:	55                   	push   %rbp
  4011bc:	53                   	push   %rbx
  4011bd:	41 89 fc             	mov    %edi,%r12d
  4011c0:	48 89 f3             	mov    %rsi,%rbx
  4011c3:	be ca 1f 40 00       	mov    $0x401fca,%esi
  4011c8:	bf 0b 00 00 00       	mov    $0xb,%edi
  4011cd:	e8 8e fb ff ff       	callq  400d60 <signal@plt>
  4011d2:	be 7c 1f 40 00       	mov    $0x401f7c,%esi
  4011d7:	bf 07 00 00 00       	mov    $0x7,%edi
  4011dc:	e8 7f fb ff ff       	callq  400d60 <signal@plt>
  4011e1:	be 18 20 40 00       	mov    $0x402018,%esi
  4011e6:	bf 04 00 00 00       	mov    $0x4,%edi
  4011eb:	e8 70 fb ff ff       	callq  400d60 <signal@plt>
  4011f0:	83 3d 31 43 20 00 00 	cmpl   $0x0,0x204331(%rip)        # 605528 <is_checker>
  4011f7:	74 20                	je     401219 <main+0x64>
  4011f9:	be 66 20 40 00       	mov    $0x402066,%esi
  4011fe:	bf 0e 00 00 00       	mov    $0xe,%edi
  401203:	e8 58 fb ff ff       	callq  400d60 <signal@plt>
  401208:	bf 05 00 00 00       	mov    $0x5,%edi
  40120d:	e8 0e fb ff ff       	callq  400d20 <alarm@plt>
  401212:	bd 4a 32 40 00       	mov    $0x40324a,%ebp
  401217:	eb 05                	jmp    40121e <main+0x69>
  401219:	bd 45 32 40 00       	mov    $0x403245,%ebp
  40121e:	48 8b 05 9b 42 20 00 	mov    0x20429b(%rip),%rax        # 6054c0 <stdin@@GLIBC_2.2.5>
  401225:	48 89 05 e4 42 20 00 	mov    %rax,0x2042e4(%rip)        # 605510 <infile>
  40122c:	41 bd 00 00 00 00    	mov    $0x0,%r13d
  401232:	41 be 00 00 00 00    	mov    $0x0,%r14d
  401238:	e9 c6 00 00 00       	jmpq   401303 <main+0x14e>
  40123d:	83 e8 61             	sub    $0x61,%eax
  401240:	3c 10                	cmp    $0x10,%al
  401242:	0f 87 9c 00 00 00    	ja     4012e4 <main+0x12f>
  401248:	0f b6 c0             	movzbl %al,%eax
  40124b:	ff 24 c5 90 32 40 00 	jmpq   *0x403290(,%rax,8)
  401252:	48 8b 3b             	mov    (%rbx),%rdi
  401255:	e8 4c fd ff ff       	callq  400fa6 <usage>
  40125a:	be 0d 35 40 00       	mov    $0x40350d,%esi
  40125f:	48 8b 3d 62 42 20 00 	mov    0x204262(%rip),%rdi        # 6054c8 <optarg@@GLIBC_2.2.5>
  401266:	e8 a5 fb ff ff       	callq  400e10 <fopen@plt>
  40126b:	48 89 05 9e 42 20 00 	mov    %rax,0x20429e(%rip)        # 605510 <infile>
  401272:	48 85 c0             	test   %rax,%rax
  401275:	0f 85 88 00 00 00    	jne    401303 <main+0x14e>
  40127b:	48 8b 0d 46 42 20 00 	mov    0x204246(%rip),%rcx        # 6054c8 <optarg@@GLIBC_2.2.5>
  401282:	ba 52 32 40 00       	mov    $0x403252,%edx
  401287:	be 01 00 00 00       	mov    $0x1,%esi
  40128c:	48 8b 3d 4d 42 20 00 	mov    0x20424d(%rip),%rdi        # 6054e0 <stderr@@GLIBC_2.2.5>
  401293:	e8 d8 fb ff ff       	callq  400e70 <__fprintf_chk@plt>
  401298:	b8 01 00 00 00       	mov    $0x1,%eax
  40129d:	e9 e4 00 00 00       	jmpq   401386 <main+0x1d1>
  4012a2:	ba 10 00 00 00       	mov    $0x10,%edx
  4012a7:	be 00 00 00 00       	mov    $0x0,%esi
  4012ac:	48 8b 3d 15 42 20 00 	mov    0x204215(%rip),%rdi        # 6054c8 <optarg@@GLIBC_2.2.5>
  4012b3:	e8 78 fb ff ff       	callq  400e30 <strtoul@plt>
  4012b8:	41 89 c6             	mov    %eax,%r14d
  4012bb:	eb 46                	jmp    401303 <main+0x14e>
  4012bd:	ba 0a 00 00 00       	mov    $0xa,%edx
  4012c2:	be 00 00 00 00       	mov    $0x0,%esi
  4012c7:	48 8b 3d fa 41 20 00 	mov    0x2041fa(%rip),%rdi        # 6054c8 <optarg@@GLIBC_2.2.5>
  4012ce:	e8 bd fa ff ff       	callq  400d90 <strtol@plt>
  4012d3:	41 89 c5             	mov    %eax,%r13d
  4012d6:	eb 2b                	jmp    401303 <main+0x14e>
  4012d8:	c7 05 c6 41 20 00 00 	movl   $0x0,0x2041c6(%rip)        # 6054a8 <notify>
  4012df:	00 00 00 
  4012e2:	eb 1f                	jmp    401303 <main+0x14e>
  4012e4:	0f be d2             	movsbl %dl,%edx
  4012e7:	be 6f 32 40 00       	mov    $0x40326f,%esi
  4012ec:	bf 01 00 00 00       	mov    $0x1,%edi
  4012f1:	b8 00 00 00 00       	mov    $0x0,%eax
  4012f6:	e8 05 fb ff ff       	callq  400e00 <__printf_chk@plt>
  4012fb:	48 8b 3b             	mov    (%rbx),%rdi
  4012fe:	e8 a3 fc ff ff       	callq  400fa6 <usage>
  401303:	48 89 ea             	mov    %rbp,%rdx
  401306:	48 89 de             	mov    %rbx,%rsi
  401309:	44 89 e7             	mov    %r12d,%edi
  40130c:	e8 0f fb ff ff       	callq  400e20 <getopt@plt>
  401311:	89 c2                	mov    %eax,%edx
  401313:	3c ff                	cmp    $0xff,%al
  401315:	0f 85 22 ff ff ff    	jne    40123d <main+0x88>
  40131b:	be 01 00 00 00       	mov    $0x1,%esi
  401320:	44 89 ef             	mov    %r13d,%edi
  401323:	e8 08 fd ff ff       	callq  401030 <initialize_target>
  401328:	83 3d f9 41 20 00 00 	cmpl   $0x0,0x2041f9(%rip)        # 605528 <is_checker>
  40132f:	74 2a                	je     40135b <main+0x1a6>
  401331:	44 3b 35 e8 41 20 00 	cmp    0x2041e8(%rip),%r14d        # 605520 <authkey>
  401338:	74 21                	je     40135b <main+0x1a6>
  40133a:	44 89 f2             	mov    %r14d,%edx
  40133d:	be a8 31 40 00       	mov    $0x4031a8,%esi
  401342:	bf 01 00 00 00       	mov    $0x1,%edi
  401347:	b8 00 00 00 00       	mov    $0x0,%eax
  40134c:	e8 af fa ff ff       	callq  400e00 <__printf_chk@plt>
  401351:	b8 00 00 00 00       	mov    $0x0,%eax
  401356:	e8 bd 08 00 00       	callq  401c18 <check_fail>
  40135b:	8b 15 c3 41 20 00    	mov    0x2041c3(%rip),%edx        # 605524 <cookie>
  401361:	be 82 32 40 00       	mov    $0x403282,%esi
  401366:	bf 01 00 00 00       	mov    $0x1,%edi
  40136b:	b8 00 00 00 00       	mov    $0x0,%eax
  401370:	e8 8b fa ff ff       	callq  400e00 <__printf_chk@plt>
  401375:	48 8b 3d 24 41 20 00 	mov    0x204124(%rip),%rdi        # 6054a0 <buf_offset>
  40137c:	e8 38 0d 00 00       	callq  4020b9 <launch>
  401381:	b8 00 00 00 00       	mov    $0x0,%eax
  401386:	5b                   	pop    %rbx
  401387:	5d                   	pop    %rbp
  401388:	41 5c                	pop    %r12
  40138a:	41 5d                	pop    %r13
  40138c:	41 5e                	pop    %r14
  40138e:	c3                   	retq   

000000000040138f <scramble>:
  40138f:	48 83 ec 38          	sub    $0x38,%rsp
  401393:	64 48 8b 04 25 28 00 	mov    %fs:0x28,%rax
  40139a:	00 00 
  40139c:	48 89 44 24 28       	mov    %rax,0x28(%rsp)
  4013a1:	31 c0                	xor    %eax,%eax
  4013a3:	eb 10                	jmp    4013b5 <scramble+0x26>
  4013a5:	69 d0 2c fd 00 00    	imul   $0xfd2c,%eax,%edx
  4013ab:	01 fa                	add    %edi,%edx
  4013ad:	89 c1                	mov    %eax,%ecx
  4013af:	89 14 8c             	mov    %edx,(%rsp,%rcx,4)
  4013b2:	83 c0 01             	add    $0x1,%eax
  4013b5:	83 f8 09             	cmp    $0x9,%eax
  4013b8:	76 eb                	jbe    4013a5 <scramble+0x16>
  4013ba:	8b 04 24             	mov    (%rsp),%eax
  4013bd:	69 c0 5a c0 00 00    	imul   $0xc05a,%eax,%eax
  4013c3:	89 04 24             	mov    %eax,(%rsp)
  4013c6:	8b 44 24 14          	mov    0x14(%rsp),%eax
  4013ca:	69 c0 00 19 00 00    	imul   $0x1900,%eax,%eax
  4013d0:	89 44 24 14          	mov    %eax,0x14(%rsp)
  4013d4:	8b 44 24 10          	mov    0x10(%rsp),%eax
  4013d8:	69 c0 fc ab 00 00    	imul   $0xabfc,%eax,%eax
  4013de:	89 44 24 10          	mov    %eax,0x10(%rsp)
  4013e2:	8b 44 24 14          	mov    0x14(%rsp),%eax
  4013e6:	69 c0 50 e8 00 00    	imul   $0xe850,%eax,%eax
  4013ec:	89 44 24 14          	mov    %eax,0x14(%rsp)
  4013f0:	8b 04 24             	mov    (%rsp),%eax
  4013f3:	69 c0 94 e9 00 00    	imul   $0xe994,%eax,%eax
  4013f9:	89 04 24             	mov    %eax,(%rsp)
  4013fc:	8b 44 24 0c          	mov    0xc(%rsp),%eax
  401400:	69 c0 28 17 00 00    	imul   $0x1728,%eax,%eax
  401406:	89 44 24 0c          	mov    %eax,0xc(%rsp)
  40140a:	8b 44 24 04          	mov    0x4(%rsp),%eax
  40140e:	69 c0 2d cd 00 00    	imul   $0xcd2d,%eax,%eax
  401414:	89 44 24 04          	mov    %eax,0x4(%rsp)
  401418:	8b 04 24             	mov    (%rsp),%eax
  40141b:	69 c0 38 a2 00 00    	imul   $0xa238,%eax,%eax
  401421:	89 04 24             	mov    %eax,(%rsp)
  401424:	8b 44 24 18          	mov    0x18(%rsp),%eax
  401428:	69 c0 b0 37 00 00    	imul   $0x37b0,%eax,%eax
  40142e:	89 44 24 18          	mov    %eax,0x18(%rsp)
  401432:	8b 44 24 14          	mov    0x14(%rsp),%eax
  401436:	69 c0 87 a7 00 00    	imul   $0xa787,%eax,%eax
  40143c:	89 44 24 14          	mov    %eax,0x14(%rsp)
  401440:	8b 44 24 24          	mov    0x24(%rsp),%eax
  401444:	69 c0 a5 49 00 00    	imul   $0x49a5,%eax,%eax
  40144a:	89 44 24 24          	mov    %eax,0x24(%rsp)
  40144e:	8b 44 24 04          	mov    0x4(%rsp),%eax
  401452:	69 c0 f8 69 00 00    	imul   $0x69f8,%eax,%eax
  401458:	89 44 24 04          	mov    %eax,0x4(%rsp)
  40145c:	8b 44 24 1c          	mov    0x1c(%rsp),%eax
  401460:	69 c0 1e ee 00 00    	imul   $0xee1e,%eax,%eax
  401466:	89 44 24 1c          	mov    %eax,0x1c(%rsp)
  40146a:	8b 44 24 0c          	mov    0xc(%rsp),%eax
  40146e:	69 c0 aa b2 00 00    	imul   $0xb2aa,%eax,%eax
  401474:	89 44 24 0c          	mov    %eax,0xc(%rsp)
  401478:	8b 44 24 1c          	mov    0x1c(%rsp),%eax
  40147c:	69 c0 07 14 00 00    	imul   $0x1407,%eax,%eax
  401482:	89 44 24 1c          	mov    %eax,0x1c(%rsp)
  401486:	8b 44 24 1c          	mov    0x1c(%rsp),%eax
  40148a:	69 c0 7e 7a 00 00    	imul   $0x7a7e,%eax,%eax
  401490:	89 44 24 1c          	mov    %eax,0x1c(%rsp)
  401494:	8b 44 24 08          	mov    0x8(%rsp),%eax
  401498:	69 c0 9f 1f 00 00    	imul   $0x1f9f,%eax,%eax
  40149e:	89 44 24 08          	mov    %eax,0x8(%rsp)
  4014a2:	8b 44 24 04          	mov    0x4(%rsp),%eax
  4014a6:	69 c0 a0 eb 00 00    	imul   $0xeba0,%eax,%eax
  4014ac:	89 44 24 04          	mov    %eax,0x4(%rsp)
  4014b0:	8b 44 24 0c          	mov    0xc(%rsp),%eax
  4014b4:	69 c0 96 08 00 00    	imul   $0x896,%eax,%eax
  4014ba:	89 44 24 0c          	mov    %eax,0xc(%rsp)
  4014be:	8b 44 24 24          	mov    0x24(%rsp),%eax
  4014c2:	69 c0 c6 28 00 00    	imul   $0x28c6,%eax,%eax
  4014c8:	89 44 24 24          	mov    %eax,0x24(%rsp)
  4014cc:	8b 44 24 20          	mov    0x20(%rsp),%eax
  4014d0:	69 c0 bd a1 00 00    	imul   $0xa1bd,%eax,%eax
  4014d6:	89 44 24 20          	mov    %eax,0x20(%rsp)
  4014da:	8b 44 24 20          	mov    0x20(%rsp),%eax
  4014de:	69 c0 ca 8e 00 00    	imul   $0x8eca,%eax,%eax
  4014e4:	89 44 24 20          	mov    %eax,0x20(%rsp)
  4014e8:	8b 44 24 10          	mov    0x10(%rsp),%eax
  4014ec:	69 c0 fa c9 00 00    	imul   $0xc9fa,%eax,%eax
  4014f2:	89 44 24 10          	mov    %eax,0x10(%rsp)
  4014f6:	8b 44 24 08          	mov    0x8(%rsp),%eax
  4014fa:	69 c0 4b 43 00 00    	imul   $0x434b,%eax,%eax
  401500:	89 44 24 08          	mov    %eax,0x8(%rsp)
  401504:	8b 44 24 08          	mov    0x8(%rsp),%eax
  401508:	69 c0 47 19 00 00    	imul   $0x1947,%eax,%eax
  40150e:	89 44 24 08          	mov    %eax,0x8(%rsp)
  401512:	8b 44 24 20          	mov    0x20(%rsp),%eax
  401516:	69 c0 cd d0 00 00    	imul   $0xd0cd,%eax,%eax
  40151c:	89 44 24 20          	mov    %eax,0x20(%rsp)
  401520:	8b 04 24             	mov    (%rsp),%eax
  401523:	69 c0 4b 05 00 00    	imul   $0x54b,%eax,%eax
  401529:	89 04 24             	mov    %eax,(%rsp)
  40152c:	8b 44 24 04          	mov    0x4(%rsp),%eax
  401530:	69 c0 b5 03 00 00    	imul   $0x3b5,%eax,%eax
  401536:	89 44 24 04          	mov    %eax,0x4(%rsp)
  40153a:	8b 44 24 1c          	mov    0x1c(%rsp),%eax
  40153e:	69 c0 f3 6b 00 00    	imul   $0x6bf3,%eax,%eax
  401544:	89 44 24 1c          	mov    %eax,0x1c(%rsp)
  401548:	8b 44 24 08          	mov    0x8(%rsp),%eax
  40154c:	69 c0 bb 70 00 00    	imul   $0x70bb,%eax,%eax
  401552:	89 44 24 08          	mov    %eax,0x8(%rsp)
  401556:	8b 44 24 04          	mov    0x4(%rsp),%eax
  40155a:	69 c0 da 03 00 00    	imul   $0x3da,%eax,%eax
  401560:	89 44 24 04          	mov    %eax,0x4(%rsp)
  401564:	8b 44 24 10          	mov    0x10(%rsp),%eax
  401568:	69 c0 5b 54 00 00    	imul   $0x545b,%eax,%eax
  40156e:	89 44 24 10          	mov    %eax,0x10(%rsp)
  401572:	8b 44 24 10          	mov    0x10(%rsp),%eax
  401576:	69 c0 b7 7e 00 00    	imul   $0x7eb7,%eax,%eax
  40157c:	89 44 24 10          	mov    %eax,0x10(%rsp)
  401580:	8b 44 24 0c          	mov    0xc(%rsp),%eax
  401584:	69 c0 15 ef 00 00    	imul   $0xef15,%eax,%eax
  40158a:	89 44 24 0c          	mov    %eax,0xc(%rsp)
  40158e:	8b 44 24 10          	mov    0x10(%rsp),%eax
  401592:	69 c0 ed 13 00 00    	imul   $0x13ed,%eax,%eax
  401598:	89 44 24 10          	mov    %eax,0x10(%rsp)
  40159c:	8b 44 24 10          	mov    0x10(%rsp),%eax
  4015a0:	69 c0 78 79 00 00    	imul   $0x7978,%eax,%eax
  4015a6:	89 44 24 10          	mov    %eax,0x10(%rsp)
  4015aa:	8b 44 24 24          	mov    0x24(%rsp),%eax
  4015ae:	69 c0 ca 57 00 00    	imul   $0x57ca,%eax,%eax
  4015b4:	89 44 24 24          	mov    %eax,0x24(%rsp)
  4015b8:	8b 44 24 18          	mov    0x18(%rsp),%eax
  4015bc:	69 c0 94 24 00 00    	imul   $0x2494,%eax,%eax
  4015c2:	89 44 24 18          	mov    %eax,0x18(%rsp)
  4015c6:	8b 44 24 0c          	mov    0xc(%rsp),%eax
  4015ca:	69 c0 45 39 00 00    	imul   $0x3945,%eax,%eax
  4015d0:	89 44 24 0c          	mov    %eax,0xc(%rsp)
  4015d4:	8b 04 24             	mov    (%rsp),%eax
  4015d7:	69 c0 6e 23 00 00    	imul   $0x236e,%eax,%eax
  4015dd:	89 04 24             	mov    %eax,(%rsp)
  4015e0:	8b 04 24             	mov    (%rsp),%eax
  4015e3:	69 c0 b2 52 00 00    	imul   $0x52b2,%eax,%eax
  4015e9:	89 04 24             	mov    %eax,(%rsp)
  4015ec:	8b 44 24 0c          	mov    0xc(%rsp),%eax
  4015f0:	69 c0 78 b5 00 00    	imul   $0xb578,%eax,%eax
  4015f6:	89 44 24 0c          	mov    %eax,0xc(%rsp)
  4015fa:	8b 04 24             	mov    (%rsp),%eax
  4015fd:	69 c0 02 2f 00 00    	imul   $0x2f02,%eax,%eax
  401603:	89 04 24             	mov    %eax,(%rsp)
  401606:	8b 44 24 1c          	mov    0x1c(%rsp),%eax
  40160a:	69 c0 67 4b 00 00    	imul   $0x4b67,%eax,%eax
  401610:	89 44 24 1c          	mov    %eax,0x1c(%rsp)
  401614:	8b 44 24 10          	mov    0x10(%rsp),%eax
  401618:	69 c0 8d 6f 00 00    	imul   $0x6f8d,%eax,%eax
  40161e:	89 44 24 10          	mov    %eax,0x10(%rsp)
  401622:	8b 44 24 10          	mov    0x10(%rsp),%eax
  401626:	69 c0 f0 1a 00 00    	imul   $0x1af0,%eax,%eax
  40162c:	89 44 24 10          	mov    %eax,0x10(%rsp)
  401630:	8b 44 24 0c          	mov    0xc(%rsp),%eax
  401634:	69 c0 5b a7 00 00    	imul   $0xa75b,%eax,%eax
  40163a:	89 44 24 0c          	mov    %eax,0xc(%rsp)
  40163e:	8b 04 24             	mov    (%rsp),%eax
  401641:	69 c0 e2 96 00 00    	imul   $0x96e2,%eax,%eax
  401647:	89 04 24             	mov    %eax,(%rsp)
  40164a:	8b 44 24 1c          	mov    0x1c(%rsp),%eax
  40164e:	69 c0 47 af 00 00    	imul   $0xaf47,%eax,%eax
  401654:	89 44 24 1c          	mov    %eax,0x1c(%rsp)
  401658:	8b 04 24             	mov    (%rsp),%eax
  40165b:	69 c0 5f ad 00 00    	imul   $0xad5f,%eax,%eax
  401661:	89 04 24             	mov    %eax,(%rsp)
  401664:	8b 04 24             	mov    (%rsp),%eax
  401667:	69 c0 d3 9d 00 00    	imul   $0x9dd3,%eax,%eax
  40166d:	89 04 24             	mov    %eax,(%rsp)
  401670:	8b 44 24 20          	mov    0x20(%rsp),%eax
  401674:	69 c0 de 78 00 00    	imul   $0x78de,%eax,%eax
  40167a:	89 44 24 20          	mov    %eax,0x20(%rsp)
  40167e:	8b 44 24 04          	mov    0x4(%rsp),%eax
  401682:	69 c0 1b 2f 00 00    	imul   $0x2f1b,%eax,%eax
  401688:	89 44 24 04          	mov    %eax,0x4(%rsp)
  40168c:	8b 44 24 20          	mov    0x20(%rsp),%eax
  401690:	69 c0 62 17 00 00    	imul   $0x1762,%eax,%eax
  401696:	89 44 24 20          	mov    %eax,0x20(%rsp)
  40169a:	8b 44 24 14          	mov    0x14(%rsp),%eax
  40169e:	69 c0 52 05 00 00    	imul   $0x552,%eax,%eax
  4016a4:	89 44 24 14          	mov    %eax,0x14(%rsp)
  4016a8:	8b 44 24 10          	mov    0x10(%rsp),%eax
  4016ac:	69 c0 ed ba 00 00    	imul   $0xbaed,%eax,%eax
  4016b2:	89 44 24 10          	mov    %eax,0x10(%rsp)
  4016b6:	8b 44 24 24          	mov    0x24(%rsp),%eax
  4016ba:	69 c0 0d 2f 00 00    	imul   $0x2f0d,%eax,%eax
  4016c0:	89 44 24 24          	mov    %eax,0x24(%rsp)
  4016c4:	8b 44 24 1c          	mov    0x1c(%rsp),%eax
  4016c8:	69 c0 02 b0 00 00    	imul   $0xb002,%eax,%eax
  4016ce:	89 44 24 1c          	mov    %eax,0x1c(%rsp)
  4016d2:	8b 44 24 14          	mov    0x14(%rsp),%eax
  4016d6:	69 c0 93 29 00 00    	imul   $0x2993,%eax,%eax
  4016dc:	89 44 24 14          	mov    %eax,0x14(%rsp)
  4016e0:	8b 44 24 24          	mov    0x24(%rsp),%eax
  4016e4:	69 c0 04 f9 00 00    	imul   $0xf904,%eax,%eax
  4016ea:	89 44 24 24          	mov    %eax,0x24(%rsp)
  4016ee:	8b 44 24 20          	mov    0x20(%rsp),%eax
  4016f2:	69 c0 8b b7 00 00    	imul   $0xb78b,%eax,%eax
  4016f8:	89 44 24 20          	mov    %eax,0x20(%rsp)
  4016fc:	8b 44 24 18          	mov    0x18(%rsp),%eax
  401700:	69 c0 89 0c 00 00    	imul   $0xc89,%eax,%eax
  401706:	89 44 24 18          	mov    %eax,0x18(%rsp)
  40170a:	8b 44 24 14          	mov    0x14(%rsp),%eax
  40170e:	69 c0 40 83 00 00    	imul   $0x8340,%eax,%eax
  401714:	89 44 24 14          	mov    %eax,0x14(%rsp)
  401718:	8b 44 24 14          	mov    0x14(%rsp),%eax
  40171c:	69 c0 f8 84 00 00    	imul   $0x84f8,%eax,%eax
  401722:	89 44 24 14          	mov    %eax,0x14(%rsp)
  401726:	8b 44 24 14          	mov    0x14(%rsp),%eax
  40172a:	69 c0 62 29 00 00    	imul   $0x2962,%eax,%eax
  401730:	89 44 24 14          	mov    %eax,0x14(%rsp)
  401734:	8b 44 24 18          	mov    0x18(%rsp),%eax
  401738:	69 c0 bc f5 00 00    	imul   $0xf5bc,%eax,%eax
  40173e:	89 44 24 18          	mov    %eax,0x18(%rsp)
  401742:	8b 44 24 08          	mov    0x8(%rsp),%eax
  401746:	69 c0 2f 59 00 00    	imul   $0x592f,%eax,%eax
  40174c:	89 44 24 08          	mov    %eax,0x8(%rsp)
  401750:	8b 44 24 20          	mov    0x20(%rsp),%eax
  401754:	69 c0 d4 bc 00 00    	imul   $0xbcd4,%eax,%eax
  40175a:	89 44 24 20          	mov    %eax,0x20(%rsp)
  40175e:	8b 04 24             	mov    (%rsp),%eax
  401761:	69 c0 0d 0c 00 00    	imul   $0xc0d,%eax,%eax
  401767:	89 04 24             	mov    %eax,(%rsp)
  40176a:	8b 04 24             	mov    (%rsp),%eax
  40176d:	69 c0 ab f0 00 00    	imul   $0xf0ab,%eax,%eax
  401773:	89 04 24             	mov    %eax,(%rsp)
  401776:	8b 44 24 20          	mov    0x20(%rsp),%eax
  40177a:	69 c0 07 0f 00 00    	imul   $0xf07,%eax,%eax
  401780:	89 44 24 20          	mov    %eax,0x20(%rsp)
  401784:	8b 44 24 10          	mov    0x10(%rsp),%eax
  401788:	69 c0 64 69 00 00    	imul   $0x6964,%eax,%eax
  40178e:	89 44 24 10          	mov    %eax,0x10(%rsp)
  401792:	8b 44 24 18          	mov    0x18(%rsp),%eax
  401796:	69 c0 fd 1b 00 00    	imul   $0x1bfd,%eax,%eax
  40179c:	89 44 24 18          	mov    %eax,0x18(%rsp)
  4017a0:	8b 44 24 1c          	mov    0x1c(%rsp),%eax
  4017a4:	69 c0 23 9c 00 00    	imul   $0x9c23,%eax,%eax
  4017aa:	89 44 24 1c          	mov    %eax,0x1c(%rsp)
  4017ae:	8b 04 24             	mov    (%rsp),%eax
  4017b1:	69 c0 cf 14 00 00    	imul   $0x14cf,%eax,%eax
  4017b7:	89 04 24             	mov    %eax,(%rsp)
  4017ba:	8b 44 24 08          	mov    0x8(%rsp),%eax
  4017be:	69 c0 b2 de 00 00    	imul   $0xdeb2,%eax,%eax
  4017c4:	89 44 24 08          	mov    %eax,0x8(%rsp)
  4017c8:	8b 44 24 04          	mov    0x4(%rsp),%eax
  4017cc:	69 c0 1c a9 00 00    	imul   $0xa91c,%eax,%eax
  4017d2:	89 44 24 04          	mov    %eax,0x4(%rsp)
  4017d6:	8b 44 24 18          	mov    0x18(%rsp),%eax
  4017da:	69 c0 40 2b 00 00    	imul   $0x2b40,%eax,%eax
  4017e0:	89 44 24 18          	mov    %eax,0x18(%rsp)
  4017e4:	8b 04 24             	mov    (%rsp),%eax
  4017e7:	69 c0 a6 8e 00 00    	imul   $0x8ea6,%eax,%eax
  4017ed:	89 04 24             	mov    %eax,(%rsp)
  4017f0:	8b 04 24             	mov    (%rsp),%eax
  4017f3:	69 c0 e4 5e 00 00    	imul   $0x5ee4,%eax,%eax
  4017f9:	89 04 24             	mov    %eax,(%rsp)
  4017fc:	8b 44 24 20          	mov    0x20(%rsp),%eax
  401800:	69 c0 90 e2 00 00    	imul   $0xe290,%eax,%eax
  401806:	89 44 24 20          	mov    %eax,0x20(%rsp)
  40180a:	8b 44 24 0c          	mov    0xc(%rsp),%eax
  40180e:	69 c0 3e 7f 00 00    	imul   $0x7f3e,%eax,%eax
  401814:	89 44 24 0c          	mov    %eax,0xc(%rsp)
  401818:	8b 44 24 08          	mov    0x8(%rsp),%eax
  40181c:	69 c0 3a c3 00 00    	imul   $0xc33a,%eax,%eax
  401822:	89 44 24 08          	mov    %eax,0x8(%rsp)
  401826:	8b 44 24 20          	mov    0x20(%rsp),%eax
  40182a:	69 c0 0a c4 00 00    	imul   $0xc40a,%eax,%eax
  401830:	89 44 24 20          	mov    %eax,0x20(%rsp)
  401834:	8b 44 24 04          	mov    0x4(%rsp),%eax
  401838:	69 c0 49 10 00 00    	imul   $0x1049,%eax,%eax
  40183e:	89 44 24 04          	mov    %eax,0x4(%rsp)
  401842:	8b 44 24 10          	mov    0x10(%rsp),%eax
  401846:	69 c0 a8 e0 00 00    	imul   $0xe0a8,%eax,%eax
  40184c:	89 44 24 10          	mov    %eax,0x10(%rsp)
  401850:	8b 44 24 18          	mov    0x18(%rsp),%eax
  401854:	69 c0 4d 60 00 00    	imul   $0x604d,%eax,%eax
  40185a:	89 44 24 18          	mov    %eax,0x18(%rsp)
  40185e:	8b 44 24 18          	mov    0x18(%rsp),%eax
  401862:	69 c0 65 5d 00 00    	imul   $0x5d65,%eax,%eax
  401868:	89 44 24 18          	mov    %eax,0x18(%rsp)
  40186c:	ba 00 00 00 00       	mov    $0x0,%edx
  401871:	b8 00 00 00 00       	mov    $0x0,%eax
  401876:	eb 0a                	jmp    401882 <scramble+0x4f3>
  401878:	89 d1                	mov    %edx,%ecx
  40187a:	8b 0c 8c             	mov    (%rsp,%rcx,4),%ecx
  40187d:	01 c8                	add    %ecx,%eax
  40187f:	83 c2 01             	add    $0x1,%edx
  401882:	83 fa 09             	cmp    $0x9,%edx
  401885:	76 f1                	jbe    401878 <scramble+0x4e9>
  401887:	48 8b 74 24 28       	mov    0x28(%rsp),%rsi
  40188c:	64 48 33 34 25 28 00 	xor    %fs:0x28,%rsi
  401893:	00 00 
  401895:	74 05                	je     40189c <scramble+0x50d>
  401897:	e8 54 f4 ff ff       	callq  400cf0 <__stack_chk_fail@plt>
  40189c:	48 83 c4 38          	add    $0x38,%rsp
  4018a0:	c3                   	retq   

00000000004018a1 <getbuf>:
  4018a1:	48 83 ec 38          	sub    $0x38,%rsp
  4018a5:	48 89 e7             	mov    %rsp,%rdi
  4018a8:	e8 a0 03 00 00       	callq  401c4d <Gets>
  4018ad:	b8 01 00 00 00       	mov    $0x1,%eax
  4018b2:	48 83 c4 38          	add    $0x38,%rsp
  4018b6:	c3                   	retq   

00000000004018b7 <touch1>:
  4018b7:	48 83 ec 08          	sub    $0x8,%rsp
  4018bb:	c7 05 57 3c 20 00 01 	movl   $0x1,0x203c57(%rip)        # 60551c <vlevel>
  4018c2:	00 00 00 
  4018c5:	bf 63 33 40 00       	mov    $0x403363,%edi
  4018ca:	e8 01 f4 ff ff       	callq  400cd0 <puts@plt>
  4018cf:	bf 01 00 00 00       	mov    $0x1,%edi
  4018d4:	e8 b9 05 00 00       	callq  401e92 <validate>
  4018d9:	bf 00 00 00 00       	mov    $0x0,%edi
  4018de:	e8 6d f5 ff ff       	callq  400e50 <exit@plt>

00000000004018e3 <touch2>:
  4018e3:	48 83 ec 08          	sub    $0x8,%rsp
  4018e7:	89 fa                	mov    %edi,%edx
  4018e9:	c7 05 29 3c 20 00 02 	movl   $0x2,0x203c29(%rip)        # 60551c <vlevel>
  4018f0:	00 00 00 
  4018f3:	39 3d 2b 3c 20 00    	cmp    %edi,0x203c2b(%rip)        # 605524 <cookie>
  4018f9:	74 28                	je     401923 <touch2+0x40>
  4018fb:	be b0 33 40 00       	mov    $0x4033b0,%esi
  401900:	bf 01 00 00 00       	mov    $0x1,%edi
  401905:	b8 00 00 00 00       	mov    $0x0,%eax
  40190a:	e8 f1 f4 ff ff       	callq  400e00 <__printf_chk@plt>
  40190f:	bf 02 00 00 00       	mov    $0x2,%edi
  401914:	e8 3b 06 00 00       	callq  401f54 <fail>
  401919:	bf 00 00 00 00       	mov    $0x0,%edi
  40191e:	e8 2d f5 ff ff       	callq  400e50 <exit@plt>
  401923:	be 88 33 40 00       	mov    $0x403388,%esi
  401928:	bf 01 00 00 00       	mov    $0x1,%edi
  40192d:	b8 00 00 00 00       	mov    $0x0,%eax
  401932:	e8 c9 f4 ff ff       	callq  400e00 <__printf_chk@plt>
  401937:	bf 02 00 00 00       	mov    $0x2,%edi
  40193c:	e8 51 05 00 00       	callq  401e92 <validate>
  401941:	eb d6                	jmp    401919 <touch2+0x36>

0000000000401943 <hexmatch>:
  401943:	41 54                	push   %r12
  401945:	55                   	push   %rbp
  401946:	53                   	push   %rbx
  401947:	48 83 c4 80          	add    $0xffffffffffffff80,%rsp
  40194b:	89 fd                	mov    %edi,%ebp
  40194d:	48 89 f3             	mov    %rsi,%rbx
  401950:	64 48 8b 04 25 28 00 	mov    %fs:0x28,%rax
  401957:	00 00 
  401959:	48 89 44 24 78       	mov    %rax,0x78(%rsp)
  40195e:	31 c0                	xor    %eax,%eax
  401960:	e8 5b f4 ff ff       	callq  400dc0 <random@plt>
  401965:	48 89 c1             	mov    %rax,%rcx
  401968:	48 ba 0b d7 a3 70 3d 	movabs $0xa3d70a3d70a3d70b,%rdx
  40196f:	0a d7 a3 
  401972:	48 f7 ea             	imul   %rdx
  401975:	48 01 ca             	add    %rcx,%rdx
  401978:	48 c1 fa 06          	sar    $0x6,%rdx
  40197c:	48 89 c8             	mov    %rcx,%rax
  40197f:	48 c1 f8 3f          	sar    $0x3f,%rax
  401983:	48 29 c2             	sub    %rax,%rdx
  401986:	48 8d 04 92          	lea    (%rdx,%rdx,4),%rax
  40198a:	48 8d 14 80          	lea    (%rax,%rax,4),%rdx
  40198e:	48 8d 04 95 00 00 00 	lea    0x0(,%rdx,4),%rax
  401995:	00 
  401996:	48 29 c1             	sub    %rax,%rcx
  401999:	4c 8d 24 0c          	lea    (%rsp,%rcx,1),%r12
  40199d:	41 89 e8             	mov    %ebp,%r8d
  4019a0:	b9 80 33 40 00       	mov    $0x403380,%ecx
  4019a5:	48 c7 c2 ff ff ff ff 	mov    $0xffffffffffffffff,%rdx
  4019ac:	be 01 00 00 00       	mov    $0x1,%esi
  4019b1:	4c 89 e7             	mov    %r12,%rdi
  4019b4:	b8 00 00 00 00       	mov    $0x0,%eax
  4019b9:	e8 c2 f4 ff ff       	callq  400e80 <__sprintf_chk@plt>
  4019be:	ba 09 00 00 00       	mov    $0x9,%edx
  4019c3:	4c 89 e6             	mov    %r12,%rsi
  4019c6:	48 89 df             	mov    %rbx,%rdi
  4019c9:	e8 e2 f2 ff ff       	callq  400cb0 <strncmp@plt>
  4019ce:	85 c0                	test   %eax,%eax
  4019d0:	0f 94 c0             	sete   %al
  4019d3:	48 8b 5c 24 78       	mov    0x78(%rsp),%rbx
  4019d8:	64 48 33 1c 25 28 00 	xor    %fs:0x28,%rbx
  4019df:	00 00 
  4019e1:	75 0c                	jne    4019ef <hexmatch+0xac>
  4019e3:	0f b6 c0             	movzbl %al,%eax
  4019e6:	48 83 ec 80          	sub    $0xffffffffffffff80,%rsp
  4019ea:	5b                   	pop    %rbx
  4019eb:	5d                   	pop    %rbp
  4019ec:	41 5c                	pop    %r12
  4019ee:	c3                   	retq   
  4019ef:	e8 fc f2 ff ff       	callq  400cf0 <__stack_chk_fail@plt>

00000000004019f4 <touch3>:
  4019f4:	53                   	push   %rbx
  4019f5:	48 89 fb             	mov    %rdi,%rbx
  4019f8:	c7 05 1a 3b 20 00 03 	movl   $0x3,0x203b1a(%rip)        # 60551c <vlevel>
  4019ff:	00 00 00 
  401a02:	48 89 fe             	mov    %rdi,%rsi
  401a05:	8b 3d 19 3b 20 00    	mov    0x203b19(%rip),%edi        # 605524 <cookie>
  401a0b:	e8 33 ff ff ff       	callq  401943 <hexmatch>
  401a10:	85 c0                	test   %eax,%eax
  401a12:	74 2b                	je     401a3f <touch3+0x4b>
  401a14:	48 89 da             	mov    %rbx,%rdx
  401a17:	be d8 33 40 00       	mov    $0x4033d8,%esi
  401a1c:	bf 01 00 00 00       	mov    $0x1,%edi
  401a21:	b8 00 00 00 00       	mov    $0x0,%eax
  401a26:	e8 d5 f3 ff ff       	callq  400e00 <__printf_chk@plt>
  401a2b:	bf 03 00 00 00       	mov    $0x3,%edi
  401a30:	e8 5d 04 00 00       	callq  401e92 <validate>
  401a35:	bf 00 00 00 00       	mov    $0x0,%edi
  401a3a:	e8 11 f4 ff ff       	callq  400e50 <exit@plt>
  401a3f:	48 89 da             	mov    %rbx,%rdx
  401a42:	be 00 34 40 00       	mov    $0x403400,%esi
  401a47:	bf 01 00 00 00       	mov    $0x1,%edi
  401a4c:	b8 00 00 00 00       	mov    $0x0,%eax
  401a51:	e8 aa f3 ff ff       	callq  400e00 <__printf_chk@plt>
  401a56:	bf 03 00 00 00       	mov    $0x3,%edi
  401a5b:	e8 f4 04 00 00       	callq  401f54 <fail>
  401a60:	eb d3                	jmp    401a35 <touch3+0x41>

0000000000401a62 <test>:
  401a62:	48 83 ec 08          	sub    $0x8,%rsp
  401a66:	b8 00 00 00 00       	mov    $0x0,%eax
  401a6b:	e8 31 fe ff ff       	callq  4018a1 <getbuf>
  401a70:	89 c2                	mov    %eax,%edx
  401a72:	be 28 34 40 00       	mov    $0x403428,%esi
  401a77:	bf 01 00 00 00       	mov    $0x1,%edi
  401a7c:	b8 00 00 00 00       	mov    $0x0,%eax
  401a81:	e8 7a f3 ff ff       	callq  400e00 <__printf_chk@plt>
  401a86:	48 83 c4 08          	add    $0x8,%rsp
  401a8a:	c3                   	retq   

0000000000401a8b <start_farm>:
  401a8b:	b8 01 00 00 00       	mov    $0x1,%eax
  401a90:	c3                   	retq   

0000000000401a91 <getval_343>:
  401a91:	b8 48 89 c7 c3       	mov    $0xc3c78948,%eax
  401a96:	c3                   	retq   

0000000000401a97 <addval_228>:
  401a97:	8d 87 49 89 c7 c3    	lea    -0x3c3876b7(%rdi),%eax
  401a9d:	c3                   	retq   

0000000000401a9e <addval_236>:
  401a9e:	8d 87 48 89 c7 c3    	lea    -0x3c3876b8(%rdi),%eax
  401aa4:	c3                   	retq   

0000000000401aa5 <addval_432>:
  401aa5:	8d 87 18 5e 58 c3    	lea    -0x3ca7a1e8(%rdi),%eax
  401aab:	c3                   	retq   

0000000000401aac <setval_119>:
  401aac:	c7 07 58 c3 8c 34    	movl   $0x348cc358,(%rdi)
  401ab2:	c3                   	retq   

0000000000401ab3 <getval_287>:
  401ab3:	b8 48 89 c7 94       	mov    $0x94c78948,%eax
  401ab8:	c3                   	retq   

0000000000401ab9 <getval_261>:
  401ab9:	b8 34 58 91 90       	mov    $0x90915834,%eax
  401abe:	c3                   	retq   

0000000000401abf <addval_296>:
  401abf:	8d 87 c9 ec 58 92    	lea    -0x6da71337(%rdi),%eax
  401ac5:	c3                   	retq   

0000000000401ac6 <mid_farm>:
  401ac6:	b8 01 00 00 00       	mov    $0x1,%eax
  401acb:	c3                   	retq   

0000000000401acc <add_xy>:
  401acc:	48 8d 04 37          	lea    (%rdi,%rsi,1),%rax
  401ad0:	c3                   	retq   

0000000000401ad1 <setval_232>:
  401ad1:	c7 07 89 c2 84 db    	movl   $0xdb84c289,(%rdi)
  401ad7:	c3                   	retq   

0000000000401ad8 <setval_134>:
  401ad8:	c7 07 8d d1 20 c0    	movl   $0xc020d18d,(%rdi)
  401ade:	c3                   	retq   

0000000000401adf <getval_274>:
  401adf:	b8 89 d1 48 db       	mov    $0xdb48d189,%eax
  401ae4:	c3                   	retq   

0000000000401ae5 <addval_239>:
  401ae5:	8d 87 89 d1 28 c9    	lea    -0x36d72e77(%rdi),%eax
  401aeb:	c3                   	retq   

0000000000401aec <setval_390>:
  401aec:	c7 07 81 c2 38 db    	movl   $0xdb38c281,(%rdi)
  401af2:	c3                   	retq   

0000000000401af3 <getval_293>:
  401af3:	b8 89 ce 20 db       	mov    $0xdb20ce89,%eax
  401af8:	c3                   	retq   

0000000000401af9 <addval_409>:
  401af9:	8d 87 48 89 e0 c3    	lea    -0x3c1f76b8(%rdi),%eax
  401aff:	c3                   	retq   

0000000000401b00 <addval_396>:
  401b00:	8d 87 81 ce 38 d2    	lea    -0x2dc7317f(%rdi),%eax
  401b06:	c3                   	retq   

0000000000401b07 <getval_278>:
  401b07:	b8 8d ce 08 c0       	mov    $0xc008ce8d,%eax
  401b0c:	c3                   	retq   

0000000000401b0d <addval_485>:
  401b0d:	8d 87 89 ce 92 c3    	lea    -0x3c6d3177(%rdi),%eax
  401b13:	c3                   	retq   

0000000000401b14 <getval_334>:
  401b14:	b8 89 d1 90 90       	mov    $0x9090d189,%eax
  401b19:	c3                   	retq   

0000000000401b1a <setval_255>:
  401b1a:	c7 07 89 d1 91 c3    	movl   $0xc391d189,(%rdi)
  401b20:	c3                   	retq   

0000000000401b21 <addval_252>:
  401b21:	8d 87 48 89 e0 c1    	lea    -0x3e1f76b8(%rdi),%eax
  401b27:	c3                   	retq   

0000000000401b28 <addval_378>:
  401b28:	8d 87 c8 89 e0 c3    	lea    -0x3c1f7638(%rdi),%eax
  401b2e:	c3                   	retq   

0000000000401b2f <setval_294>:
  401b2f:	c7 07 09 c2 20 db    	movl   $0xdb20c209,(%rdi)
  401b35:	c3                   	retq   

0000000000401b36 <setval_362>:
  401b36:	c7 07 89 ce 18 c9    	movl   $0xc918ce89,(%rdi)
  401b3c:	c3                   	retq   

0000000000401b3d <getval_163>:
  401b3d:	b8 c9 c2 20 d2       	mov    $0xd220c2c9,%eax
  401b42:	c3                   	retq   

0000000000401b43 <getval_271>:
  401b43:	b8 4a 89 e0 90       	mov    $0x90e0894a,%eax
  401b48:	c3                   	retq   

0000000000401b49 <addval_243>:
  401b49:	8d 87 a2 48 89 e0    	lea    -0x1f76b75e(%rdi),%eax
  401b4f:	c3                   	retq   

0000000000401b50 <addval_324>:
  401b50:	8d 87 48 89 e0 c2    	lea    -0x3d1f76b8(%rdi),%eax
  401b56:	c3                   	retq   

0000000000401b57 <getval_138>:
  401b57:	b8 81 ce 08 db       	mov    $0xdb08ce81,%eax
  401b5c:	c3                   	retq   

0000000000401b5d <addval_383>:
  401b5d:	8d 87 81 c2 08 c9    	lea    -0x36f73d7f(%rdi),%eax
  401b63:	c3                   	retq   

0000000000401b64 <setval_168>:
  401b64:	c7 07 8b d1 84 db    	movl   $0xdb84d18b,(%rdi)
  401b6a:	c3                   	retq   

0000000000401b6b <getval_291>:
  401b6b:	b8 89 ce 90 c3       	mov    $0xc390ce89,%eax
  401b70:	c3                   	retq   

0000000000401b71 <setval_207>:
  401b71:	c7 07 e5 89 d1 90    	movl   $0x90d189e5,(%rdi)
  401b77:	c3                   	retq   

0000000000401b78 <setval_348>:
  401b78:	c7 07 99 d1 38 db    	movl   $0xdb38d199,(%rdi)
  401b7e:	c3                   	retq   

0000000000401b7f <getval_192>:
  401b7f:	b8 48 89 e0 94       	mov    $0x94e08948,%eax
  401b84:	c3                   	retq   

0000000000401b85 <setval_460>:
  401b85:	c7 07 89 c2 48 c9    	movl   $0xc948c289,(%rdi)
  401b8b:	c3                   	retq   

0000000000401b8c <addval_498>:
  401b8c:	8d 87 58 89 e0 90    	lea    -0x6f1f76a8(%rdi),%eax
  401b92:	c3                   	retq   

0000000000401b93 <addval_217>:
  401b93:	8d 87 09 c2 20 db    	lea    -0x24df3df7(%rdi),%eax
  401b99:	c3                   	retq   

0000000000401b9a <getval_452>:
  401b9a:	b8 8b ce 08 c9       	mov    $0xc908ce8b,%eax
  401b9f:	c3                   	retq   

0000000000401ba0 <addval_191>:
  401ba0:	8d 87 89 c2 84 c0    	lea    -0x3f7b3d77(%rdi),%eax
  401ba6:	c3                   	retq   

0000000000401ba7 <end_farm>:
  401ba7:	b8 01 00 00 00       	mov    $0x1,%eax
  401bac:	c3                   	retq   

0000000000401bad <save_char>:
  401bad:	8b 05 91 45 20 00    	mov    0x204591(%rip),%eax        # 606144 <gets_cnt>
  401bb3:	3d ff 03 00 00       	cmp    $0x3ff,%eax
  401bb8:	7f 49                	jg     401c03 <save_char+0x56>
  401bba:	8d 14 40             	lea    (%rax,%rax,2),%edx
  401bbd:	89 f9                	mov    %edi,%ecx
  401bbf:	c0 e9 04             	shr    $0x4,%cl
  401bc2:	83 e1 0f             	and    $0xf,%ecx
  401bc5:	0f b6 b1 50 37 40 00 	movzbl 0x403750(%rcx),%esi
  401bcc:	48 63 ca             	movslq %edx,%rcx
  401bcf:	40 88 b1 40 55 60 00 	mov    %sil,0x605540(%rcx)
  401bd6:	8d 4a 01             	lea    0x1(%rdx),%ecx
  401bd9:	83 e7 0f             	and    $0xf,%edi
  401bdc:	0f b6 b7 50 37 40 00 	movzbl 0x403750(%rdi),%esi
  401be3:	48 63 c9             	movslq %ecx,%rcx
  401be6:	40 88 b1 40 55 60 00 	mov    %sil,0x605540(%rcx)
  401bed:	83 c2 02             	add    $0x2,%edx
  401bf0:	48 63 d2             	movslq %edx,%rdx
  401bf3:	c6 82 40 55 60 00 20 	movb   $0x20,0x605540(%rdx)
  401bfa:	83 c0 01             	add    $0x1,%eax
  401bfd:	89 05 41 45 20 00    	mov    %eax,0x204541(%rip)        # 606144 <gets_cnt>
  401c03:	f3 c3                	repz retq 

0000000000401c05 <save_term>:
  401c05:	8b 05 39 45 20 00    	mov    0x204539(%rip),%eax        # 606144 <gets_cnt>
  401c0b:	8d 04 40             	lea    (%rax,%rax,2),%eax
  401c0e:	48 98                	cltq   
  401c10:	c6 80 40 55 60 00 00 	movb   $0x0,0x605540(%rax)
  401c17:	c3                   	retq   

0000000000401c18 <check_fail>:
  401c18:	48 83 ec 08          	sub    $0x8,%rsp
  401c1c:	0f be 15 25 45 20 00 	movsbl 0x204525(%rip),%edx        # 606148 <target_prefix>
  401c23:	41 b8 40 55 60 00    	mov    $0x605540,%r8d
  401c29:	8b 0d e9 38 20 00    	mov    0x2038e9(%rip),%ecx        # 605518 <check_level>
  401c2f:	be 4b 34 40 00       	mov    $0x40344b,%esi
  401c34:	bf 01 00 00 00       	mov    $0x1,%edi
  401c39:	b8 00 00 00 00       	mov    $0x0,%eax
  401c3e:	e8 bd f1 ff ff       	callq  400e00 <__printf_chk@plt>
  401c43:	bf 01 00 00 00       	mov    $0x1,%edi
  401c48:	e8 03 f2 ff ff       	callq  400e50 <exit@plt>

0000000000401c4d <Gets>:
  401c4d:	41 54                	push   %r12
  401c4f:	55                   	push   %rbp
  401c50:	53                   	push   %rbx
  401c51:	49 89 fc             	mov    %rdi,%r12
  401c54:	c7 05 e6 44 20 00 00 	movl   $0x0,0x2044e6(%rip)        # 606144 <gets_cnt>
  401c5b:	00 00 00 
  401c5e:	48 89 fb             	mov    %rdi,%rbx
  401c61:	eb 11                	jmp    401c74 <Gets+0x27>
  401c63:	48 8d 6b 01          	lea    0x1(%rbx),%rbp
  401c67:	88 03                	mov    %al,(%rbx)
  401c69:	0f b6 f8             	movzbl %al,%edi
  401c6c:	e8 3c ff ff ff       	callq  401bad <save_char>
  401c71:	48 89 eb             	mov    %rbp,%rbx
  401c74:	48 8b 3d 95 38 20 00 	mov    0x203895(%rip),%rdi        # 605510 <infile>
  401c7b:	e8 50 f1 ff ff       	callq  400dd0 <_IO_getc@plt>
  401c80:	83 f8 ff             	cmp    $0xffffffff,%eax
  401c83:	74 05                	je     401c8a <Gets+0x3d>
  401c85:	83 f8 0a             	cmp    $0xa,%eax
  401c88:	75 d9                	jne    401c63 <Gets+0x16>
  401c8a:	c6 03 00             	movb   $0x0,(%rbx)
  401c8d:	b8 00 00 00 00       	mov    $0x0,%eax
  401c92:	e8 6e ff ff ff       	callq  401c05 <save_term>
  401c97:	4c 89 e0             	mov    %r12,%rax
  401c9a:	5b                   	pop    %rbx
  401c9b:	5d                   	pop    %rbp
  401c9c:	41 5c                	pop    %r12
  401c9e:	c3                   	retq   

0000000000401c9f <notify_server>:
  401c9f:	53                   	push   %rbx
  401ca0:	48 81 ec 10 40 00 00 	sub    $0x4010,%rsp
  401ca7:	64 48 8b 04 25 28 00 	mov    %fs:0x28,%rax
  401cae:	00 00 
  401cb0:	48 89 84 24 08 40 00 	mov    %rax,0x4008(%rsp)
  401cb7:	00 
  401cb8:	31 c0                	xor    %eax,%eax
  401cba:	83 3d 67 38 20 00 00 	cmpl   $0x0,0x203867(%rip)        # 605528 <is_checker>
  401cc1:	0f 85 aa 01 00 00    	jne    401e71 <notify_server+0x1d2>
  401cc7:	89 fb                	mov    %edi,%ebx
  401cc9:	8b 05 75 44 20 00    	mov    0x204475(%rip),%eax        # 606144 <gets_cnt>
  401ccf:	83 c0 64             	add    $0x64,%eax
  401cd2:	3d 00 20 00 00       	cmp    $0x2000,%eax
  401cd7:	7e 1e                	jle    401cf7 <notify_server+0x58>
  401cd9:	be 80 35 40 00       	mov    $0x403580,%esi
  401cde:	bf 01 00 00 00       	mov    $0x1,%edi
  401ce3:	b8 00 00 00 00       	mov    $0x0,%eax
  401ce8:	e8 13 f1 ff ff       	callq  400e00 <__printf_chk@plt>
  401ced:	bf 01 00 00 00       	mov    $0x1,%edi
  401cf2:	e8 59 f1 ff ff       	callq  400e50 <exit@plt>
  401cf7:	0f be 05 4a 44 20 00 	movsbl 0x20444a(%rip),%eax        # 606148 <target_prefix>
  401cfe:	83 3d a3 37 20 00 00 	cmpl   $0x0,0x2037a3(%rip)        # 6054a8 <notify>
  401d05:	74 08                	je     401d0f <notify_server+0x70>
  401d07:	8b 15 13 38 20 00    	mov    0x203813(%rip),%edx        # 605520 <authkey>
  401d0d:	eb 05                	jmp    401d14 <notify_server+0x75>
  401d0f:	ba ff ff ff ff       	mov    $0xffffffff,%edx
  401d14:	85 db                	test   %ebx,%ebx
  401d16:	74 08                	je     401d20 <notify_server+0x81>
  401d18:	41 b9 61 34 40 00    	mov    $0x403461,%r9d
  401d1e:	eb 06                	jmp    401d26 <notify_server+0x87>
  401d20:	41 b9 66 34 40 00    	mov    $0x403466,%r9d
  401d26:	68 40 55 60 00       	pushq  $0x605540
  401d2b:	56                   	push   %rsi
  401d2c:	50                   	push   %rax
  401d2d:	52                   	push   %rdx
  401d2e:	44 8b 05 33 34 20 00 	mov    0x203433(%rip),%r8d        # 605168 <target_id>
  401d35:	b9 6b 34 40 00       	mov    $0x40346b,%ecx
  401d3a:	ba 00 20 00 00       	mov    $0x2000,%edx
  401d3f:	be 01 00 00 00       	mov    $0x1,%esi
  401d44:	48 8d 7c 24 20       	lea    0x20(%rsp),%rdi
  401d49:	b8 00 00 00 00       	mov    $0x0,%eax
  401d4e:	e8 2d f1 ff ff       	callq  400e80 <__sprintf_chk@plt>
  401d53:	48 83 c4 20          	add    $0x20,%rsp
  401d57:	83 3d 4a 37 20 00 00 	cmpl   $0x0,0x20374a(%rip)        # 6054a8 <notify>
  401d5e:	0f 84 81 00 00 00    	je     401de5 <notify_server+0x146>
  401d64:	85 db                	test   %ebx,%ebx
  401d66:	74 6e                	je     401dd6 <notify_server+0x137>
  401d68:	4c 8d 8c 24 00 20 00 	lea    0x2000(%rsp),%r9
  401d6f:	00 
  401d70:	41 b8 00 00 00 00    	mov    $0x0,%r8d
  401d76:	48 89 e1             	mov    %rsp,%rcx
  401d79:	48 8b 15 f0 33 20 00 	mov    0x2033f0(%rip),%rdx        # 605170 <lab>
  401d80:	48 8b 35 f1 33 20 00 	mov    0x2033f1(%rip),%rsi        # 605178 <course>
  401d87:	48 8b 3d d2 33 20 00 	mov    0x2033d2(%rip),%rdi        # 605160 <user_id>
  401d8e:	e8 44 11 00 00       	callq  402ed7 <driver_post>
  401d93:	85 c0                	test   %eax,%eax
  401d95:	79 26                	jns    401dbd <notify_server+0x11e>
  401d97:	48 8d 94 24 00 20 00 	lea    0x2000(%rsp),%rdx
  401d9e:	00 
  401d9f:	be 87 34 40 00       	mov    $0x403487,%esi
  401da4:	bf 01 00 00 00       	mov    $0x1,%edi
  401da9:	b8 00 00 00 00       	mov    $0x0,%eax
  401dae:	e8 4d f0 ff ff       	callq  400e00 <__printf_chk@plt>
  401db3:	bf 01 00 00 00       	mov    $0x1,%edi
  401db8:	e8 93 f0 ff ff       	callq  400e50 <exit@plt>
  401dbd:	bf b0 35 40 00       	mov    $0x4035b0,%edi
  401dc2:	e8 09 ef ff ff       	callq  400cd0 <puts@plt>
  401dc7:	bf 93 34 40 00       	mov    $0x403493,%edi
  401dcc:	e8 ff ee ff ff       	callq  400cd0 <puts@plt>
  401dd1:	e9 9b 00 00 00       	jmpq   401e71 <notify_server+0x1d2>
  401dd6:	bf 9d 34 40 00       	mov    $0x40349d,%edi
  401ddb:	e8 f0 ee ff ff       	callq  400cd0 <puts@plt>
  401de0:	e9 8c 00 00 00       	jmpq   401e71 <notify_server+0x1d2>
  401de5:	85 db                	test   %ebx,%ebx
  401de7:	74 07                	je     401df0 <notify_server+0x151>
  401de9:	ba 61 34 40 00       	mov    $0x403461,%edx
  401dee:	eb 05                	jmp    401df5 <notify_server+0x156>
  401df0:	ba 66 34 40 00       	mov    $0x403466,%edx
  401df5:	be e8 35 40 00       	mov    $0x4035e8,%esi
  401dfa:	bf 01 00 00 00       	mov    $0x1,%edi
  401dff:	b8 00 00 00 00       	mov    $0x0,%eax
  401e04:	e8 f7 ef ff ff       	callq  400e00 <__printf_chk@plt>
  401e09:	48 8b 15 50 33 20 00 	mov    0x203350(%rip),%rdx        # 605160 <user_id>
  401e10:	be a4 34 40 00       	mov    $0x4034a4,%esi
  401e15:	bf 01 00 00 00       	mov    $0x1,%edi
  401e1a:	b8 00 00 00 00       	mov    $0x0,%eax
  401e1f:	e8 dc ef ff ff       	callq  400e00 <__printf_chk@plt>
  401e24:	48 8b 15 4d 33 20 00 	mov    0x20334d(%rip),%rdx        # 605178 <course>
  401e2b:	be b1 34 40 00       	mov    $0x4034b1,%esi
  401e30:	bf 01 00 00 00       	mov    $0x1,%edi
  401e35:	b8 00 00 00 00       	mov    $0x0,%eax
  401e3a:	e8 c1 ef ff ff       	callq  400e00 <__printf_chk@plt>
  401e3f:	48 8b 15 2a 33 20 00 	mov    0x20332a(%rip),%rdx        # 605170 <lab>
  401e46:	be bd 34 40 00       	mov    $0x4034bd,%esi
  401e4b:	bf 01 00 00 00       	mov    $0x1,%edi
  401e50:	b8 00 00 00 00       	mov    $0x0,%eax
  401e55:	e8 a6 ef ff ff       	callq  400e00 <__printf_chk@plt>
  401e5a:	48 89 e2             	mov    %rsp,%rdx
  401e5d:	be c6 34 40 00       	mov    $0x4034c6,%esi
  401e62:	bf 01 00 00 00       	mov    $0x1,%edi
  401e67:	b8 00 00 00 00       	mov    $0x0,%eax
  401e6c:	e8 8f ef ff ff       	callq  400e00 <__printf_chk@plt>
  401e71:	48 8b 84 24 08 40 00 	mov    0x4008(%rsp),%rax
  401e78:	00 
  401e79:	64 48 33 04 25 28 00 	xor    %fs:0x28,%rax
  401e80:	00 00 
  401e82:	74 05                	je     401e89 <notify_server+0x1ea>
  401e84:	e8 67 ee ff ff       	callq  400cf0 <__stack_chk_fail@plt>
  401e89:	48 81 c4 10 40 00 00 	add    $0x4010,%rsp
  401e90:	5b                   	pop    %rbx
  401e91:	c3                   	retq   

0000000000401e92 <validate>:
  401e92:	53                   	push   %rbx
  401e93:	89 fb                	mov    %edi,%ebx
  401e95:	83 3d 8c 36 20 00 00 	cmpl   $0x0,0x20368c(%rip)        # 605528 <is_checker>
  401e9c:	74 6b                	je     401f09 <validate+0x77>
  401e9e:	39 3d 78 36 20 00    	cmp    %edi,0x203678(%rip)        # 60551c <vlevel>
  401ea4:	74 14                	je     401eba <validate+0x28>
  401ea6:	bf d2 34 40 00       	mov    $0x4034d2,%edi
  401eab:	e8 20 ee ff ff       	callq  400cd0 <puts@plt>
  401eb0:	b8 00 00 00 00       	mov    $0x0,%eax
  401eb5:	e8 5e fd ff ff       	callq  401c18 <check_fail>
  401eba:	8b 15 58 36 20 00    	mov    0x203658(%rip),%edx        # 605518 <check_level>
  401ec0:	39 d7                	cmp    %edx,%edi
  401ec2:	74 20                	je     401ee4 <validate+0x52>
  401ec4:	89 f9                	mov    %edi,%ecx
  401ec6:	be 10 36 40 00       	mov    $0x403610,%esi
  401ecb:	bf 01 00 00 00       	mov    $0x1,%edi
  401ed0:	b8 00 00 00 00       	mov    $0x0,%eax
  401ed5:	e8 26 ef ff ff       	callq  400e00 <__printf_chk@plt>
  401eda:	b8 00 00 00 00       	mov    $0x0,%eax
  401edf:	e8 34 fd ff ff       	callq  401c18 <check_fail>
  401ee4:	0f be 15 5d 42 20 00 	movsbl 0x20425d(%rip),%edx        # 606148 <target_prefix>
  401eeb:	41 b8 40 55 60 00    	mov    $0x605540,%r8d
  401ef1:	89 f9                	mov    %edi,%ecx
  401ef3:	be f0 34 40 00       	mov    $0x4034f0,%esi
  401ef8:	bf 01 00 00 00       	mov    $0x1,%edi
  401efd:	b8 00 00 00 00       	mov    $0x0,%eax
  401f02:	e8 f9 ee ff ff       	callq  400e00 <__printf_chk@plt>
  401f07:	eb 49                	jmp    401f52 <validate+0xc0>
  401f09:	3b 3d 0d 36 20 00    	cmp    0x20360d(%rip),%edi        # 60551c <vlevel>
  401f0f:	74 18                	je     401f29 <validate+0x97>
  401f11:	bf d2 34 40 00       	mov    $0x4034d2,%edi
  401f16:	e8 b5 ed ff ff       	callq  400cd0 <puts@plt>
  401f1b:	89 de                	mov    %ebx,%esi
  401f1d:	bf 00 00 00 00       	mov    $0x0,%edi
  401f22:	e8 78 fd ff ff       	callq  401c9f <notify_server>
  401f27:	eb 29                	jmp    401f52 <validate+0xc0>
  401f29:	0f be 0d 18 42 20 00 	movsbl 0x204218(%rip),%ecx        # 606148 <target_prefix>
  401f30:	89 fa                	mov    %edi,%edx
  401f32:	be 38 36 40 00       	mov    $0x403638,%esi
  401f37:	bf 01 00 00 00       	mov    $0x1,%edi
  401f3c:	b8 00 00 00 00       	mov    $0x0,%eax
  401f41:	e8 ba ee ff ff       	callq  400e00 <__printf_chk@plt>
  401f46:	89 de                	mov    %ebx,%esi
  401f48:	bf 01 00 00 00       	mov    $0x1,%edi
  401f4d:	e8 4d fd ff ff       	callq  401c9f <notify_server>
  401f52:	5b                   	pop    %rbx
  401f53:	c3                   	retq   

0000000000401f54 <fail>:
  401f54:	48 83 ec 08          	sub    $0x8,%rsp
  401f58:	83 3d c9 35 20 00 00 	cmpl   $0x0,0x2035c9(%rip)        # 605528 <is_checker>
  401f5f:	74 0a                	je     401f6b <fail+0x17>
  401f61:	b8 00 00 00 00       	mov    $0x0,%eax
  401f66:	e8 ad fc ff ff       	callq  401c18 <check_fail>
  401f6b:	89 fe                	mov    %edi,%esi
  401f6d:	bf 00 00 00 00       	mov    $0x0,%edi
  401f72:	e8 28 fd ff ff       	callq  401c9f <notify_server>
  401f77:	48 83 c4 08          	add    $0x8,%rsp
  401f7b:	c3                   	retq   

0000000000401f7c <bushandler>:
  401f7c:	48 83 ec 08          	sub    $0x8,%rsp
  401f80:	83 3d a1 35 20 00 00 	cmpl   $0x0,0x2035a1(%rip)        # 605528 <is_checker>
  401f87:	74 14                	je     401f9d <bushandler+0x21>
  401f89:	bf 05 35 40 00       	mov    $0x403505,%edi
  401f8e:	e8 3d ed ff ff       	callq  400cd0 <puts@plt>
  401f93:	b8 00 00 00 00       	mov    $0x0,%eax
  401f98:	e8 7b fc ff ff       	callq  401c18 <check_fail>
  401f9d:	bf 70 36 40 00       	mov    $0x403670,%edi
  401fa2:	e8 29 ed ff ff       	callq  400cd0 <puts@plt>
  401fa7:	bf 0f 35 40 00       	mov    $0x40350f,%edi
  401fac:	e8 1f ed ff ff       	callq  400cd0 <puts@plt>
  401fb1:	be 00 00 00 00       	mov    $0x0,%esi
  401fb6:	bf 00 00 00 00       	mov    $0x0,%edi
  401fbb:	e8 df fc ff ff       	callq  401c9f <notify_server>
  401fc0:	bf 01 00 00 00       	mov    $0x1,%edi
  401fc5:	e8 86 ee ff ff       	callq  400e50 <exit@plt>

0000000000401fca <seghandler>:
  401fca:	48 83 ec 08          	sub    $0x8,%rsp
  401fce:	83 3d 53 35 20 00 00 	cmpl   $0x0,0x203553(%rip)        # 605528 <is_checker>
  401fd5:	74 14                	je     401feb <seghandler+0x21>
  401fd7:	bf 25 35 40 00       	mov    $0x403525,%edi
  401fdc:	e8 ef ec ff ff       	callq  400cd0 <puts@plt>
  401fe1:	b8 00 00 00 00       	mov    $0x0,%eax
  401fe6:	e8 2d fc ff ff       	callq  401c18 <check_fail>
  401feb:	bf 90 36 40 00       	mov    $0x403690,%edi
  401ff0:	e8 db ec ff ff       	callq  400cd0 <puts@plt>
  401ff5:	bf 0f 35 40 00       	mov    $0x40350f,%edi
  401ffa:	e8 d1 ec ff ff       	callq  400cd0 <puts@plt>
  401fff:	be 00 00 00 00       	mov    $0x0,%esi
  402004:	bf 00 00 00 00       	mov    $0x0,%edi
  402009:	e8 91 fc ff ff       	callq  401c9f <notify_server>
  40200e:	bf 01 00 00 00       	mov    $0x1,%edi
  402013:	e8 38 ee ff ff       	callq  400e50 <exit@plt>

0000000000402018 <illegalhandler>:
  402018:	48 83 ec 08          	sub    $0x8,%rsp
  40201c:	83 3d 05 35 20 00 00 	cmpl   $0x0,0x203505(%rip)        # 605528 <is_checker>
  402023:	74 14                	je     402039 <illegalhandler+0x21>
  402025:	bf 38 35 40 00       	mov    $0x403538,%edi
  40202a:	e8 a1 ec ff ff       	callq  400cd0 <puts@plt>
  40202f:	b8 00 00 00 00       	mov    $0x0,%eax
  402034:	e8 df fb ff ff       	callq  401c18 <check_fail>
  402039:	bf b8 36 40 00       	mov    $0x4036b8,%edi
  40203e:	e8 8d ec ff ff       	callq  400cd0 <puts@plt>
  402043:	bf 0f 35 40 00       	mov    $0x40350f,%edi
  402048:	e8 83 ec ff ff       	callq  400cd0 <puts@plt>
  40204d:	be 00 00 00 00       	mov    $0x0,%esi
  402052:	bf 00 00 00 00       	mov    $0x0,%edi
  402057:	e8 43 fc ff ff       	callq  401c9f <notify_server>
  40205c:	bf 01 00 00 00       	mov    $0x1,%edi
  402061:	e8 ea ed ff ff       	callq  400e50 <exit@plt>

0000000000402066 <sigalrmhandler>:
  402066:	48 83 ec 08          	sub    $0x8,%rsp
  40206a:	83 3d b7 34 20 00 00 	cmpl   $0x0,0x2034b7(%rip)        # 605528 <is_checker>
  402071:	74 14                	je     402087 <sigalrmhandler+0x21>
  402073:	bf 4c 35 40 00       	mov    $0x40354c,%edi
  402078:	e8 53 ec ff ff       	callq  400cd0 <puts@plt>
  40207d:	b8 00 00 00 00       	mov    $0x0,%eax
  402082:	e8 91 fb ff ff       	callq  401c18 <check_fail>
  402087:	ba 05 00 00 00       	mov    $0x5,%edx
  40208c:	be e8 36 40 00       	mov    $0x4036e8,%esi
  402091:	bf 01 00 00 00       	mov    $0x1,%edi
  402096:	b8 00 00 00 00       	mov    $0x0,%eax
  40209b:	e8 60 ed ff ff       	callq  400e00 <__printf_chk@plt>
  4020a0:	be 00 00 00 00       	mov    $0x0,%esi
  4020a5:	bf 00 00 00 00       	mov    $0x0,%edi
  4020aa:	e8 f0 fb ff ff       	callq  401c9f <notify_server>
  4020af:	bf 01 00 00 00       	mov    $0x1,%edi
  4020b4:	e8 97 ed ff ff       	callq  400e50 <exit@plt>

00000000004020b9 <launch>:
  4020b9:	55                   	push   %rbp
  4020ba:	48 89 e5             	mov    %rsp,%rbp
  4020bd:	48 83 ec 10          	sub    $0x10,%rsp
  4020c1:	48 89 fa             	mov    %rdi,%rdx
  4020c4:	64 48 8b 04 25 28 00 	mov    %fs:0x28,%rax
  4020cb:	00 00 
  4020cd:	48 89 45 f8          	mov    %rax,-0x8(%rbp)
  4020d1:	31 c0                	xor    %eax,%eax
  4020d3:	48 8d 47 1e          	lea    0x1e(%rdi),%rax
  4020d7:	48 83 e0 f0          	and    $0xfffffffffffffff0,%rax
  4020db:	48 29 c4             	sub    %rax,%rsp
  4020de:	48 8d 7c 24 0f       	lea    0xf(%rsp),%rdi
  4020e3:	48 83 e7 f0          	and    $0xfffffffffffffff0,%rdi
  4020e7:	be f4 00 00 00       	mov    $0xf4,%esi
  4020ec:	e8 1f ec ff ff       	callq  400d10 <memset@plt>
  4020f1:	48 8b 05 c8 33 20 00 	mov    0x2033c8(%rip),%rax        # 6054c0 <stdin@@GLIBC_2.2.5>
  4020f8:	48 39 05 11 34 20 00 	cmp    %rax,0x203411(%rip)        # 605510 <infile>
  4020ff:	75 14                	jne    402115 <launch+0x5c>
  402101:	be 54 35 40 00       	mov    $0x403554,%esi
  402106:	bf 01 00 00 00       	mov    $0x1,%edi
  40210b:	b8 00 00 00 00       	mov    $0x0,%eax
  402110:	e8 eb ec ff ff       	callq  400e00 <__printf_chk@plt>
  402115:	c7 05 fd 33 20 00 00 	movl   $0x0,0x2033fd(%rip)        # 60551c <vlevel>
  40211c:	00 00 00 
  40211f:	b8 00 00 00 00       	mov    $0x0,%eax
  402124:	e8 39 f9 ff ff       	callq  401a62 <test>
  402129:	83 3d f8 33 20 00 00 	cmpl   $0x0,0x2033f8(%rip)        # 605528 <is_checker>
  402130:	74 14                	je     402146 <launch+0x8d>
  402132:	bf 61 35 40 00       	mov    $0x403561,%edi
  402137:	e8 94 eb ff ff       	callq  400cd0 <puts@plt>
  40213c:	b8 00 00 00 00       	mov    $0x0,%eax
  402141:	e8 d2 fa ff ff       	callq  401c18 <check_fail>
  402146:	bf 6c 35 40 00       	mov    $0x40356c,%edi
  40214b:	e8 80 eb ff ff       	callq  400cd0 <puts@plt>
  402150:	48 8b 45 f8          	mov    -0x8(%rbp),%rax
  402154:	64 48 33 04 25 28 00 	xor    %fs:0x28,%rax
  40215b:	00 00 
  40215d:	74 05                	je     402164 <launch+0xab>
  40215f:	e8 8c eb ff ff       	callq  400cf0 <__stack_chk_fail@plt>
  402164:	c9                   	leaveq 
  402165:	c3                   	retq   

0000000000402166 <stable_launch>:
  402166:	53                   	push   %rbx
  402167:	48 89 3d 9a 33 20 00 	mov    %rdi,0x20339a(%rip)        # 605508 <global_offset>
  40216e:	41 b9 00 00 00 00    	mov    $0x0,%r9d
  402174:	41 b8 00 00 00 00    	mov    $0x0,%r8d
  40217a:	b9 32 01 00 00       	mov    $0x132,%ecx
  40217f:	ba 07 00 00 00       	mov    $0x7,%edx
  402184:	be 00 00 10 00       	mov    $0x100000,%esi
  402189:	bf 00 60 58 55       	mov    $0x55586000,%edi
  40218e:	e8 6d eb ff ff       	callq  400d00 <mmap@plt>
  402193:	48 89 c3             	mov    %rax,%rbx
  402196:	48 3d 00 60 58 55    	cmp    $0x55586000,%rax
  40219c:	74 37                	je     4021d5 <stable_launch+0x6f>
  40219e:	be 00 00 10 00       	mov    $0x100000,%esi
  4021a3:	48 89 c7             	mov    %rax,%rdi
  4021a6:	e8 45 ec ff ff       	callq  400df0 <munmap@plt>
  4021ab:	b9 00 60 58 55       	mov    $0x55586000,%ecx
  4021b0:	ba 20 37 40 00       	mov    $0x403720,%edx
  4021b5:	be 01 00 00 00       	mov    $0x1,%esi
  4021ba:	48 8b 3d 1f 33 20 00 	mov    0x20331f(%rip),%rdi        # 6054e0 <stderr@@GLIBC_2.2.5>
  4021c1:	b8 00 00 00 00       	mov    $0x0,%eax
  4021c6:	e8 a5 ec ff ff       	callq  400e70 <__fprintf_chk@plt>
  4021cb:	bf 01 00 00 00       	mov    $0x1,%edi
  4021d0:	e8 7b ec ff ff       	callq  400e50 <exit@plt>
  4021d5:	48 8d 90 f8 ff 0f 00 	lea    0xffff8(%rax),%rdx
  4021dc:	48 89 15 6d 3f 20 00 	mov    %rdx,0x203f6d(%rip)        # 606150 <stack_top>
  4021e3:	48 89 e0             	mov    %rsp,%rax
  4021e6:	48 89 d4             	mov    %rdx,%rsp
  4021e9:	48 89 c2             	mov    %rax,%rdx
  4021ec:	48 89 15 0d 33 20 00 	mov    %rdx,0x20330d(%rip)        # 605500 <global_save_stack>
  4021f3:	48 8b 3d 0e 33 20 00 	mov    0x20330e(%rip),%rdi        # 605508 <global_offset>
  4021fa:	e8 ba fe ff ff       	callq  4020b9 <launch>
  4021ff:	48 8b 05 fa 32 20 00 	mov    0x2032fa(%rip),%rax        # 605500 <global_save_stack>
  402206:	48 89 c4             	mov    %rax,%rsp
  402209:	be 00 00 10 00       	mov    $0x100000,%esi
  40220e:	48 89 df             	mov    %rbx,%rdi
  402211:	e8 da eb ff ff       	callq  400df0 <munmap@plt>
  402216:	5b                   	pop    %rbx
  402217:	c3                   	retq   

0000000000402218 <rio_readinitb>:
  402218:	89 37                	mov    %esi,(%rdi)
  40221a:	c7 47 04 00 00 00 00 	movl   $0x0,0x4(%rdi)
  402221:	48 8d 47 10          	lea    0x10(%rdi),%rax
  402225:	48 89 47 08          	mov    %rax,0x8(%rdi)
  402229:	c3                   	retq   

000000000040222a <sigalrm_handler>:
  40222a:	48 83 ec 08          	sub    $0x8,%rsp
  40222e:	b9 00 00 00 00       	mov    $0x0,%ecx
  402233:	ba 60 37 40 00       	mov    $0x403760,%edx
  402238:	be 01 00 00 00       	mov    $0x1,%esi
  40223d:	48 8b 3d 9c 32 20 00 	mov    0x20329c(%rip),%rdi        # 6054e0 <stderr@@GLIBC_2.2.5>
  402244:	b8 00 00 00 00       	mov    $0x0,%eax
  402249:	e8 22 ec ff ff       	callq  400e70 <__fprintf_chk@plt>
  40224e:	bf 01 00 00 00       	mov    $0x1,%edi
  402253:	e8 f8 eb ff ff       	callq  400e50 <exit@plt>

0000000000402258 <rio_writen>:
  402258:	41 55                	push   %r13
  40225a:	41 54                	push   %r12
  40225c:	55                   	push   %rbp
  40225d:	53                   	push   %rbx
  40225e:	48 83 ec 08          	sub    $0x8,%rsp
  402262:	41 89 fc             	mov    %edi,%r12d
  402265:	48 89 f5             	mov    %rsi,%rbp
  402268:	49 89 d5             	mov    %rdx,%r13
  40226b:	48 89 d3             	mov    %rdx,%rbx
  40226e:	eb 06                	jmp    402276 <rio_writen+0x1e>
  402270:	48 29 c3             	sub    %rax,%rbx
  402273:	48 01 c5             	add    %rax,%rbp
  402276:	48 85 db             	test   %rbx,%rbx
  402279:	74 24                	je     40229f <rio_writen+0x47>
  40227b:	48 89 da             	mov    %rbx,%rdx
  40227e:	48 89 ee             	mov    %rbp,%rsi
  402281:	44 89 e7             	mov    %r12d,%edi
  402284:	e8 57 ea ff ff       	callq  400ce0 <write@plt>
  402289:	48 85 c0             	test   %rax,%rax
  40228c:	7f e2                	jg     402270 <rio_writen+0x18>
  40228e:	e8 fd e9 ff ff       	callq  400c90 <__errno_location@plt>
  402293:	83 38 04             	cmpl   $0x4,(%rax)
  402296:	75 15                	jne    4022ad <rio_writen+0x55>
  402298:	b8 00 00 00 00       	mov    $0x0,%eax
  40229d:	eb d1                	jmp    402270 <rio_writen+0x18>
  40229f:	4c 89 e8             	mov    %r13,%rax
  4022a2:	48 83 c4 08          	add    $0x8,%rsp
  4022a6:	5b                   	pop    %rbx
  4022a7:	5d                   	pop    %rbp
  4022a8:	41 5c                	pop    %r12
  4022aa:	41 5d                	pop    %r13
  4022ac:	c3                   	retq   
  4022ad:	48 c7 c0 ff ff ff ff 	mov    $0xffffffffffffffff,%rax
  4022b4:	eb ec                	jmp    4022a2 <rio_writen+0x4a>

00000000004022b6 <rio_read>:
  4022b6:	41 55                	push   %r13
  4022b8:	41 54                	push   %r12
  4022ba:	55                   	push   %rbp
  4022bb:	53                   	push   %rbx
  4022bc:	48 83 ec 08          	sub    $0x8,%rsp
  4022c0:	48 89 fb             	mov    %rdi,%rbx
  4022c3:	49 89 f5             	mov    %rsi,%r13
  4022c6:	49 89 d4             	mov    %rdx,%r12
  4022c9:	eb 0a                	jmp    4022d5 <rio_read+0x1f>
  4022cb:	e8 c0 e9 ff ff       	callq  400c90 <__errno_location@plt>
  4022d0:	83 38 04             	cmpl   $0x4,(%rax)
  4022d3:	75 5c                	jne    402331 <rio_read+0x7b>
  4022d5:	8b 6b 04             	mov    0x4(%rbx),%ebp
  4022d8:	85 ed                	test   %ebp,%ebp
  4022da:	7f 24                	jg     402300 <rio_read+0x4a>
  4022dc:	48 8d 6b 10          	lea    0x10(%rbx),%rbp
  4022e0:	8b 3b                	mov    (%rbx),%edi
  4022e2:	ba 00 20 00 00       	mov    $0x2000,%edx
  4022e7:	48 89 ee             	mov    %rbp,%rsi
  4022ea:	e8 51 ea ff ff       	callq  400d40 <read@plt>
  4022ef:	89 43 04             	mov    %eax,0x4(%rbx)
  4022f2:	85 c0                	test   %eax,%eax
  4022f4:	78 d5                	js     4022cb <rio_read+0x15>
  4022f6:	85 c0                	test   %eax,%eax
  4022f8:	74 40                	je     40233a <rio_read+0x84>
  4022fa:	48 89 6b 08          	mov    %rbp,0x8(%rbx)
  4022fe:	eb d5                	jmp    4022d5 <rio_read+0x1f>
  402300:	89 e8                	mov    %ebp,%eax
  402302:	4c 39 e0             	cmp    %r12,%rax
  402305:	72 03                	jb     40230a <rio_read+0x54>
  402307:	44 89 e5             	mov    %r12d,%ebp
  40230a:	4c 63 e5             	movslq %ebp,%r12
  40230d:	48 8b 73 08          	mov    0x8(%rbx),%rsi
  402311:	4c 89 e2             	mov    %r12,%rdx
  402314:	4c 89 ef             	mov    %r13,%rdi
  402317:	e8 84 ea ff ff       	callq  400da0 <memcpy@plt>
  40231c:	4c 01 63 08          	add    %r12,0x8(%rbx)
  402320:	29 6b 04             	sub    %ebp,0x4(%rbx)
  402323:	4c 89 e0             	mov    %r12,%rax
  402326:	48 83 c4 08          	add    $0x8,%rsp
  40232a:	5b                   	pop    %rbx
  40232b:	5d                   	pop    %rbp
  40232c:	41 5c                	pop    %r12
  40232e:	41 5d                	pop    %r13
  402330:	c3                   	retq   
  402331:	48 c7 c0 ff ff ff ff 	mov    $0xffffffffffffffff,%rax
  402338:	eb ec                	jmp    402326 <rio_read+0x70>
  40233a:	b8 00 00 00 00       	mov    $0x0,%eax
  40233f:	eb e5                	jmp    402326 <rio_read+0x70>

0000000000402341 <rio_readlineb>:
  402341:	41 55                	push   %r13
  402343:	41 54                	push   %r12
  402345:	55                   	push   %rbp
  402346:	53                   	push   %rbx
  402347:	48 83 ec 18          	sub    $0x18,%rsp
  40234b:	49 89 fd             	mov    %rdi,%r13
  40234e:	48 89 f5             	mov    %rsi,%rbp
  402351:	49 89 d4             	mov    %rdx,%r12
  402354:	64 48 8b 04 25 28 00 	mov    %fs:0x28,%rax
  40235b:	00 00 
  40235d:	48 89 44 24 08       	mov    %rax,0x8(%rsp)
  402362:	31 c0                	xor    %eax,%eax
  402364:	bb 01 00 00 00       	mov    $0x1,%ebx
  402369:	4c 39 e3             	cmp    %r12,%rbx
  40236c:	73 47                	jae    4023b5 <rio_readlineb+0x74>
  40236e:	ba 01 00 00 00       	mov    $0x1,%edx
  402373:	48 8d 74 24 07       	lea    0x7(%rsp),%rsi
  402378:	4c 89 ef             	mov    %r13,%rdi
  40237b:	e8 36 ff ff ff       	callq  4022b6 <rio_read>
  402380:	83 f8 01             	cmp    $0x1,%eax
  402383:	75 1c                	jne    4023a1 <rio_readlineb+0x60>
  402385:	48 8d 45 01          	lea    0x1(%rbp),%rax
  402389:	0f b6 54 24 07       	movzbl 0x7(%rsp),%edx
  40238e:	88 55 00             	mov    %dl,0x0(%rbp)
  402391:	80 7c 24 07 0a       	cmpb   $0xa,0x7(%rsp)
  402396:	74 1a                	je     4023b2 <rio_readlineb+0x71>
  402398:	48 83 c3 01          	add    $0x1,%rbx
  40239c:	48 89 c5             	mov    %rax,%rbp
  40239f:	eb c8                	jmp    402369 <rio_readlineb+0x28>
  4023a1:	85 c0                	test   %eax,%eax
  4023a3:	75 32                	jne    4023d7 <rio_readlineb+0x96>
  4023a5:	48 83 fb 01          	cmp    $0x1,%rbx
  4023a9:	75 0a                	jne    4023b5 <rio_readlineb+0x74>
  4023ab:	b8 00 00 00 00       	mov    $0x0,%eax
  4023b0:	eb 0a                	jmp    4023bc <rio_readlineb+0x7b>
  4023b2:	48 89 c5             	mov    %rax,%rbp
  4023b5:	c6 45 00 00          	movb   $0x0,0x0(%rbp)
  4023b9:	48 89 d8             	mov    %rbx,%rax
  4023bc:	48 8b 4c 24 08       	mov    0x8(%rsp),%rcx
  4023c1:	64 48 33 0c 25 28 00 	xor    %fs:0x28,%rcx
  4023c8:	00 00 
  4023ca:	75 14                	jne    4023e0 <rio_readlineb+0x9f>
  4023cc:	48 83 c4 18          	add    $0x18,%rsp
  4023d0:	5b                   	pop    %rbx
  4023d1:	5d                   	pop    %rbp
  4023d2:	41 5c                	pop    %r12
  4023d4:	41 5d                	pop    %r13
  4023d6:	c3                   	retq   
  4023d7:	48 c7 c0 ff ff ff ff 	mov    $0xffffffffffffffff,%rax
  4023de:	eb dc                	jmp    4023bc <rio_readlineb+0x7b>
  4023e0:	e8 0b e9 ff ff       	callq  400cf0 <__stack_chk_fail@plt>

00000000004023e5 <urlencode>:
  4023e5:	41 54                	push   %r12
  4023e7:	55                   	push   %rbp
  4023e8:	53                   	push   %rbx
  4023e9:	48 83 ec 10          	sub    $0x10,%rsp
  4023ed:	48 89 fb             	mov    %rdi,%rbx
  4023f0:	48 89 f5             	mov    %rsi,%rbp
  4023f3:	64 48 8b 04 25 28 00 	mov    %fs:0x28,%rax
  4023fa:	00 00 
  4023fc:	48 89 44 24 08       	mov    %rax,0x8(%rsp)
  402401:	31 c0                	xor    %eax,%eax
  402403:	48 c7 c1 ff ff ff ff 	mov    $0xffffffffffffffff,%rcx
  40240a:	f2 ae                	repnz scas %es:(%rdi),%al
  40240c:	48 89 ce             	mov    %rcx,%rsi
  40240f:	48 f7 d6             	not    %rsi
  402412:	8d 46 ff             	lea    -0x1(%rsi),%eax
  402415:	eb 0f                	jmp    402426 <urlencode+0x41>
  402417:	44 88 45 00          	mov    %r8b,0x0(%rbp)
  40241b:	48 8d 6d 01          	lea    0x1(%rbp),%rbp
  40241f:	48 83 c3 01          	add    $0x1,%rbx
  402423:	44 89 e0             	mov    %r12d,%eax
  402426:	44 8d 60 ff          	lea    -0x1(%rax),%r12d
  40242a:	85 c0                	test   %eax,%eax
  40242c:	0f 84 a6 00 00 00    	je     4024d8 <urlencode+0xf3>
  402432:	44 0f b6 03          	movzbl (%rbx),%r8d
  402436:	41 80 f8 2a          	cmp    $0x2a,%r8b
  40243a:	0f 94 c2             	sete   %dl
  40243d:	41 80 f8 2d          	cmp    $0x2d,%r8b
  402441:	0f 94 c0             	sete   %al
  402444:	08 c2                	or     %al,%dl
  402446:	75 cf                	jne    402417 <urlencode+0x32>
  402448:	41 80 f8 2e          	cmp    $0x2e,%r8b
  40244c:	74 c9                	je     402417 <urlencode+0x32>
  40244e:	41 80 f8 5f          	cmp    $0x5f,%r8b
  402452:	74 c3                	je     402417 <urlencode+0x32>
  402454:	41 8d 40 d0          	lea    -0x30(%r8),%eax
  402458:	3c 09                	cmp    $0x9,%al
  40245a:	76 bb                	jbe    402417 <urlencode+0x32>
  40245c:	41 8d 40 bf          	lea    -0x41(%r8),%eax
  402460:	3c 19                	cmp    $0x19,%al
  402462:	76 b3                	jbe    402417 <urlencode+0x32>
  402464:	41 8d 40 9f          	lea    -0x61(%r8),%eax
  402468:	3c 19                	cmp    $0x19,%al
  40246a:	76 ab                	jbe    402417 <urlencode+0x32>
  40246c:	41 80 f8 20          	cmp    $0x20,%r8b
  402470:	74 54                	je     4024c6 <urlencode+0xe1>
  402472:	41 8d 40 e0          	lea    -0x20(%r8),%eax
  402476:	3c 5f                	cmp    $0x5f,%al
  402478:	0f 96 c2             	setbe  %dl
  40247b:	41 80 f8 09          	cmp    $0x9,%r8b
  40247f:	0f 94 c0             	sete   %al
  402482:	08 c2                	or     %al,%dl
  402484:	74 4d                	je     4024d3 <urlencode+0xee>
  402486:	45 0f b6 c0          	movzbl %r8b,%r8d
  40248a:	b9 f8 37 40 00       	mov    $0x4037f8,%ecx
  40248f:	ba 08 00 00 00       	mov    $0x8,%edx
  402494:	be 01 00 00 00       	mov    $0x1,%esi
  402499:	48 89 e7             	mov    %rsp,%rdi
  40249c:	b8 00 00 00 00       	mov    $0x0,%eax
  4024a1:	e8 da e9 ff ff       	callq  400e80 <__sprintf_chk@plt>
  4024a6:	0f b6 04 24          	movzbl (%rsp),%eax
  4024aa:	88 45 00             	mov    %al,0x0(%rbp)
  4024ad:	0f b6 44 24 01       	movzbl 0x1(%rsp),%eax
  4024b2:	88 45 01             	mov    %al,0x1(%rbp)
  4024b5:	0f b6 44 24 02       	movzbl 0x2(%rsp),%eax
  4024ba:	88 45 02             	mov    %al,0x2(%rbp)
  4024bd:	48 8d 6d 03          	lea    0x3(%rbp),%rbp
  4024c1:	e9 59 ff ff ff       	jmpq   40241f <urlencode+0x3a>
  4024c6:	c6 45 00 2b          	movb   $0x2b,0x0(%rbp)
  4024ca:	48 8d 6d 01          	lea    0x1(%rbp),%rbp
  4024ce:	e9 4c ff ff ff       	jmpq   40241f <urlencode+0x3a>
  4024d3:	b8 ff ff ff ff       	mov    $0xffffffff,%eax
  4024d8:	48 8b 74 24 08       	mov    0x8(%rsp),%rsi
  4024dd:	64 48 33 34 25 28 00 	xor    %fs:0x28,%rsi
  4024e4:	00 00 
  4024e6:	75 09                	jne    4024f1 <urlencode+0x10c>
  4024e8:	48 83 c4 10          	add    $0x10,%rsp
  4024ec:	5b                   	pop    %rbx
  4024ed:	5d                   	pop    %rbp
  4024ee:	41 5c                	pop    %r12
  4024f0:	c3                   	retq   
  4024f1:	e8 fa e7 ff ff       	callq  400cf0 <__stack_chk_fail@plt>

00000000004024f6 <submitr>:
  4024f6:	41 57                	push   %r15
  4024f8:	41 56                	push   %r14
  4024fa:	41 55                	push   %r13
  4024fc:	41 54                	push   %r12
  4024fe:	55                   	push   %rbp
  4024ff:	53                   	push   %rbx
  402500:	48 81 ec 58 a0 00 00 	sub    $0xa058,%rsp
  402507:	49 89 fc             	mov    %rdi,%r12
  40250a:	89 74 24 04          	mov    %esi,0x4(%rsp)
  40250e:	49 89 d7             	mov    %rdx,%r15
  402511:	49 89 ce             	mov    %rcx,%r14
  402514:	4c 89 44 24 08       	mov    %r8,0x8(%rsp)
  402519:	4d 89 cd             	mov    %r9,%r13
  40251c:	48 8b ac 24 90 a0 00 	mov    0xa090(%rsp),%rbp
  402523:	00 
  402524:	64 48 8b 04 25 28 00 	mov    %fs:0x28,%rax
  40252b:	00 00 
  40252d:	48 89 84 24 48 a0 00 	mov    %rax,0xa048(%rsp)
  402534:	00 
  402535:	31 c0                	xor    %eax,%eax
  402537:	c7 44 24 1c 00 00 00 	movl   $0x0,0x1c(%rsp)
  40253e:	00 
  40253f:	ba 00 00 00 00       	mov    $0x0,%edx
  402544:	be 01 00 00 00       	mov    $0x1,%esi
  402549:	bf 02 00 00 00       	mov    $0x2,%edi
  40254e:	e8 3d e9 ff ff       	callq  400e90 <socket@plt>
  402553:	85 c0                	test   %eax,%eax
  402555:	0f 88 c6 01 00 00    	js     402721 <submitr+0x22b>
  40255b:	89 c3                	mov    %eax,%ebx
  40255d:	4c 89 e7             	mov    %r12,%rdi
  402560:	e8 0b e8 ff ff       	callq  400d70 <gethostbyname@plt>
  402565:	48 85 c0             	test   %rax,%rax
  402568:	0f 84 02 02 00 00    	je     402770 <submitr+0x27a>
  40256e:	48 8d 4c 24 20       	lea    0x20(%rsp),%rcx
  402573:	48 c7 44 24 22 00 00 	movq   $0x0,0x22(%rsp)
  40257a:	00 00 
  40257c:	c7 44 24 2a 00 00 00 	movl   $0x0,0x2a(%rsp)
  402583:	00 
  402584:	66 c7 44 24 2e 00 00 	movw   $0x0,0x2e(%rsp)
  40258b:	66 c7 44 24 20 02 00 	movw   $0x2,0x20(%rsp)
  402592:	48 63 50 14          	movslq 0x14(%rax),%rdx
  402596:	48 8b 40 18          	mov    0x18(%rax),%rax
  40259a:	48 8b 30             	mov    (%rax),%rsi
  40259d:	48 8d 79 04          	lea    0x4(%rcx),%rdi
  4025a1:	b9 0c 00 00 00       	mov    $0xc,%ecx
  4025a6:	e8 d5 e7 ff ff       	callq  400d80 <__memmove_chk@plt>
  4025ab:	0f b7 44 24 04       	movzwl 0x4(%rsp),%eax
  4025b0:	66 c1 c8 08          	ror    $0x8,%ax
  4025b4:	66 89 44 24 22       	mov    %ax,0x22(%rsp)
  4025b9:	ba 10 00 00 00       	mov    $0x10,%edx
  4025be:	48 8d 74 24 20       	lea    0x20(%rsp),%rsi
  4025c3:	89 df                	mov    %ebx,%edi
  4025c5:	e8 96 e8 ff ff       	callq  400e60 <connect@plt>
  4025ca:	85 c0                	test   %eax,%eax
  4025cc:	0f 88 06 02 00 00    	js     4027d8 <submitr+0x2e2>
  4025d2:	48 c7 c6 ff ff ff ff 	mov    $0xffffffffffffffff,%rsi
  4025d9:	b8 00 00 00 00       	mov    $0x0,%eax
  4025de:	48 89 f1             	mov    %rsi,%rcx
  4025e1:	4c 89 ef             	mov    %r13,%rdi
  4025e4:	f2 ae                	repnz scas %es:(%rdi),%al
  4025e6:	48 f7 d1             	not    %rcx
  4025e9:	48 89 ca             	mov    %rcx,%rdx
  4025ec:	48 89 f1             	mov    %rsi,%rcx
  4025ef:	4c 89 ff             	mov    %r15,%rdi
  4025f2:	f2 ae                	repnz scas %es:(%rdi),%al
  4025f4:	48 f7 d1             	not    %rcx
  4025f7:	49 89 c8             	mov    %rcx,%r8
  4025fa:	48 89 f1             	mov    %rsi,%rcx
  4025fd:	4c 89 f7             	mov    %r14,%rdi
  402600:	f2 ae                	repnz scas %es:(%rdi),%al
  402602:	48 f7 d1             	not    %rcx
  402605:	4d 8d 44 08 fe       	lea    -0x2(%r8,%rcx,1),%r8
  40260a:	48 89 f1             	mov    %rsi,%rcx
  40260d:	48 8b 7c 24 08       	mov    0x8(%rsp),%rdi
  402612:	f2 ae                	repnz scas %es:(%rdi),%al
  402614:	48 89 c8             	mov    %rcx,%rax
  402617:	48 f7 d0             	not    %rax
  40261a:	49 8d 4c 00 ff       	lea    -0x1(%r8,%rax,1),%rcx
  40261f:	48 8d 44 52 fd       	lea    -0x3(%rdx,%rdx,2),%rax
  402624:	48 8d 84 01 80 00 00 	lea    0x80(%rcx,%rax,1),%rax
  40262b:	00 
  40262c:	48 3d 00 20 00 00    	cmp    $0x2000,%rax
  402632:	0f 87 fa 01 00 00    	ja     402832 <submitr+0x33c>
  402638:	48 8d b4 24 40 40 00 	lea    0x4040(%rsp),%rsi
  40263f:	00 
  402640:	b9 00 04 00 00       	mov    $0x400,%ecx
  402645:	b8 00 00 00 00       	mov    $0x0,%eax
  40264a:	48 89 f7             	mov    %rsi,%rdi
  40264d:	f3 48 ab             	rep stos %rax,%es:(%rdi)
  402650:	4c 89 ef             	mov    %r13,%rdi
  402653:	e8 8d fd ff ff       	callq  4023e5 <urlencode>
  402658:	85 c0                	test   %eax,%eax
  40265a:	0f 88 45 02 00 00    	js     4028a5 <submitr+0x3af>
  402660:	4c 8d ac 24 40 20 00 	lea    0x2040(%rsp),%r13
  402667:	00 
  402668:	41 54                	push   %r12
  40266a:	48 8d 84 24 48 40 00 	lea    0x4048(%rsp),%rax
  402671:	00 
  402672:	50                   	push   %rax
  402673:	4d 89 f9             	mov    %r15,%r9
  402676:	4d 89 f0             	mov    %r14,%r8
  402679:	b9 88 37 40 00       	mov    $0x403788,%ecx
  40267e:	ba 00 20 00 00       	mov    $0x2000,%edx
  402683:	be 01 00 00 00       	mov    $0x1,%esi
  402688:	4c 89 ef             	mov    %r13,%rdi
  40268b:	b8 00 00 00 00       	mov    $0x0,%eax
  402690:	e8 eb e7 ff ff       	callq  400e80 <__sprintf_chk@plt>
  402695:	48 c7 c1 ff ff ff ff 	mov    $0xffffffffffffffff,%rcx
  40269c:	b8 00 00 00 00       	mov    $0x0,%eax
  4026a1:	4c 89 ef             	mov    %r13,%rdi
  4026a4:	f2 ae                	repnz scas %es:(%rdi),%al
  4026a6:	48 f7 d1             	not    %rcx
  4026a9:	48 8d 51 ff          	lea    -0x1(%rcx),%rdx
  4026ad:	4c 89 ee             	mov    %r13,%rsi
  4026b0:	89 df                	mov    %ebx,%edi
  4026b2:	e8 a1 fb ff ff       	callq  402258 <rio_writen>
  4026b7:	48 83 c4 10          	add    $0x10,%rsp
  4026bb:	48 85 c0             	test   %rax,%rax
  4026be:	0f 88 6c 02 00 00    	js     402930 <submitr+0x43a>
  4026c4:	89 de                	mov    %ebx,%esi
  4026c6:	48 8d 7c 24 30       	lea    0x30(%rsp),%rdi
  4026cb:	e8 48 fb ff ff       	callq  402218 <rio_readinitb>
  4026d0:	ba 00 20 00 00       	mov    $0x2000,%edx
  4026d5:	48 8d b4 24 40 20 00 	lea    0x2040(%rsp),%rsi
  4026dc:	00 
  4026dd:	48 8d 7c 24 30       	lea    0x30(%rsp),%rdi
  4026e2:	e8 5a fc ff ff       	callq  402341 <rio_readlineb>
  4026e7:	48 85 c0             	test   %rax,%rax
  4026ea:	0f 8e af 02 00 00    	jle    40299f <submitr+0x4a9>
  4026f0:	4c 8d 84 24 40 80 00 	lea    0x8040(%rsp),%r8
  4026f7:	00 
  4026f8:	48 8d 4c 24 1c       	lea    0x1c(%rsp),%rcx
  4026fd:	48 8d 94 24 40 60 00 	lea    0x6040(%rsp),%rdx
  402704:	00 
  402705:	be ff 37 40 00       	mov    $0x4037ff,%esi
  40270a:	48 8d bc 24 40 20 00 	lea    0x2040(%rsp),%rdi
  402711:	00 
  402712:	b8 00 00 00 00       	mov    $0x0,%eax
  402717:	e8 c4 e6 ff ff       	callq  400de0 <__isoc99_sscanf@plt>
  40271c:	e9 bb 03 00 00       	jmpq   402adc <submitr+0x5e6>
  402721:	48 b8 45 72 72 6f 72 	movabs $0x43203a726f727245,%rax
  402728:	3a 20 43 
  40272b:	48 ba 6c 69 65 6e 74 	movabs $0x6e7520746e65696c,%rdx
  402732:	20 75 6e 
  402735:	48 89 45 00          	mov    %rax,0x0(%rbp)
  402739:	48 89 55 08          	mov    %rdx,0x8(%rbp)
  40273d:	48 b8 61 62 6c 65 20 	movabs $0x206f7420656c6261,%rax
  402744:	74 6f 20 
  402747:	48 ba 63 72 65 61 74 	movabs $0x7320657461657263,%rdx
  40274e:	65 20 73 
  402751:	48 89 45 10          	mov    %rax,0x10(%rbp)
  402755:	48 89 55 18          	mov    %rdx,0x18(%rbp)
  402759:	c7 45 20 6f 63 6b 65 	movl   $0x656b636f,0x20(%rbp)
  402760:	66 c7 45 24 74 00    	movw   $0x74,0x24(%rbp)
  402766:	b8 ff ff ff ff       	mov    $0xffffffff,%eax
  40276b:	e9 1f 03 00 00       	jmpq   402a8f <submitr+0x599>
  402770:	48 b8 45 72 72 6f 72 	movabs $0x44203a726f727245,%rax
  402777:	3a 20 44 
  40277a:	48 ba 4e 53 20 69 73 	movabs $0x6e7520736920534e,%rdx
  402781:	20 75 6e 
  402784:	48 89 45 00          	mov    %rax,0x0(%rbp)
  402788:	48 89 55 08          	mov    %rdx,0x8(%rbp)
  40278c:	48 b8 61 62 6c 65 20 	movabs $0x206f7420656c6261,%rax
  402793:	74 6f 20 
  402796:	48 ba 72 65 73 6f 6c 	movabs $0x2065766c6f736572,%rdx
  40279d:	76 65 20 
  4027a0:	48 89 45 10          	mov    %rax,0x10(%rbp)
  4027a4:	48 89 55 18          	mov    %rdx,0x18(%rbp)
  4027a8:	48 b8 73 65 72 76 65 	movabs $0x6120726576726573,%rax
  4027af:	72 20 61 
  4027b2:	48 89 45 20          	mov    %rax,0x20(%rbp)
  4027b6:	c7 45 28 64 64 72 65 	movl   $0x65726464,0x28(%rbp)
  4027bd:	66 c7 45 2c 73 73    	movw   $0x7373,0x2c(%rbp)
  4027c3:	c6 45 2e 00          	movb   $0x0,0x2e(%rbp)
  4027c7:	89 df                	mov    %ebx,%edi
  4027c9:	e8 62 e5 ff ff       	callq  400d30 <close@plt>
  4027ce:	b8 ff ff ff ff       	mov    $0xffffffff,%eax
  4027d3:	e9 b7 02 00 00       	jmpq   402a8f <submitr+0x599>
  4027d8:	48 b8 45 72 72 6f 72 	movabs $0x55203a726f727245,%rax
  4027df:	3a 20 55 
  4027e2:	48 ba 6e 61 62 6c 65 	movabs $0x6f7420656c62616e,%rdx
  4027e9:	20 74 6f 
  4027ec:	48 89 45 00          	mov    %rax,0x0(%rbp)
  4027f0:	48 89 55 08          	mov    %rdx,0x8(%rbp)
  4027f4:	48 b8 20 63 6f 6e 6e 	movabs $0x7463656e6e6f6320,%rax
  4027fb:	65 63 74 
  4027fe:	48 ba 20 74 6f 20 74 	movabs $0x20656874206f7420,%rdx
  402805:	68 65 20 
  402808:	48 89 45 10          	mov    %rax,0x10(%rbp)
  40280c:	48 89 55 18          	mov    %rdx,0x18(%rbp)
  402810:	c7 45 20 73 65 72 76 	movl   $0x76726573,0x20(%rbp)
  402817:	66 c7 45 24 65 72    	movw   $0x7265,0x24(%rbp)
  40281d:	c6 45 26 00          	movb   $0x0,0x26(%rbp)
  402821:	89 df                	mov    %ebx,%edi
  402823:	e8 08 e5 ff ff       	callq  400d30 <close@plt>
  402828:	b8 ff ff ff ff       	mov    $0xffffffff,%eax
  40282d:	e9 5d 02 00 00       	jmpq   402a8f <submitr+0x599>
  402832:	48 b8 45 72 72 6f 72 	movabs $0x52203a726f727245,%rax
  402839:	3a 20 52 
  40283c:	48 ba 65 73 75 6c 74 	movabs $0x747320746c757365,%rdx
  402843:	20 73 74 
  402846:	48 89 45 00          	mov    %rax,0x0(%rbp)
  40284a:	48 89 55 08          	mov    %rdx,0x8(%rbp)
  40284e:	48 b8 72 69 6e 67 20 	movabs $0x6f6f7420676e6972,%rax
  402855:	74 6f 6f 
  402858:	48 ba 20 6c 61 72 67 	movabs $0x202e656772616c20,%rdx
  40285f:	65 2e 20 
  402862:	48 89 45 10          	mov    %rax,0x10(%rbp)
  402866:	48 89 55 18          	mov    %rdx,0x18(%rbp)
  40286a:	48 b8 49 6e 63 72 65 	movabs $0x6573616572636e49,%rax
  402871:	61 73 65 
  402874:	48 ba 20 53 55 42 4d 	movabs $0x5254494d42555320,%rdx
  40287b:	49 54 52 
  40287e:	48 89 45 20          	mov    %rax,0x20(%rbp)
  402882:	48 89 55 28          	mov    %rdx,0x28(%rbp)
  402886:	48 b8 5f 4d 41 58 42 	movabs $0x46554258414d5f,%rax
  40288d:	55 46 00 
  402890:	48 89 45 30          	mov    %rax,0x30(%rbp)
  402894:	89 df                	mov    %ebx,%edi
  402896:	e8 95 e4 ff ff       	callq  400d30 <close@plt>
  40289b:	b8 ff ff ff ff       	mov    $0xffffffff,%eax
  4028a0:	e9 ea 01 00 00       	jmpq   402a8f <submitr+0x599>
  4028a5:	48 b8 45 72 72 6f 72 	movabs $0x52203a726f727245,%rax
  4028ac:	3a 20 52 
  4028af:	48 ba 65 73 75 6c 74 	movabs $0x747320746c757365,%rdx
  4028b6:	20 73 74 
  4028b9:	48 89 45 00          	mov    %rax,0x0(%rbp)
  4028bd:	48 89 55 08          	mov    %rdx,0x8(%rbp)
  4028c1:	48 b8 72 69 6e 67 20 	movabs $0x6e6f6320676e6972,%rax
  4028c8:	63 6f 6e 
  4028cb:	48 ba 74 61 69 6e 73 	movabs $0x6e6120736e696174,%rdx
  4028d2:	20 61 6e 
  4028d5:	48 89 45 10          	mov    %rax,0x10(%rbp)
  4028d9:	48 89 55 18          	mov    %rdx,0x18(%rbp)
  4028dd:	48 b8 20 69 6c 6c 65 	movabs $0x6c6167656c6c6920,%rax
  4028e4:	67 61 6c 
  4028e7:	48 ba 20 6f 72 20 75 	movabs $0x72706e7520726f20,%rdx
  4028ee:	6e 70 72 
  4028f1:	48 89 45 20          	mov    %rax,0x20(%rbp)
  4028f5:	48 89 55 28          	mov    %rdx,0x28(%rbp)
  4028f9:	48 b8 69 6e 74 61 62 	movabs $0x20656c6261746e69,%rax
  402900:	6c 65 20 
  402903:	48 ba 63 68 61 72 61 	movabs $0x6574636172616863,%rdx
  40290a:	63 74 65 
  40290d:	48 89 45 30          	mov    %rax,0x30(%rbp)
  402911:	48 89 55 38          	mov    %rdx,0x38(%rbp)
  402915:	66 c7 45 40 72 2e    	movw   $0x2e72,0x40(%rbp)
  40291b:	c6 45 42 00          	movb   $0x0,0x42(%rbp)
  40291f:	89 df                	mov    %ebx,%edi
  402921:	e8 0a e4 ff ff       	callq  400d30 <close@plt>
  402926:	b8 ff ff ff ff       	mov    $0xffffffff,%eax
  40292b:	e9 5f 01 00 00       	jmpq   402a8f <submitr+0x599>
  402930:	48 b8 45 72 72 6f 72 	movabs $0x43203a726f727245,%rax
  402937:	3a 20 43 
  40293a:	48 ba 6c 69 65 6e 74 	movabs $0x6e7520746e65696c,%rdx
  402941:	20 75 6e 
  402944:	48 89 45 00          	mov    %rax,0x0(%rbp)
  402948:	48 89 55 08          	mov    %rdx,0x8(%rbp)
  40294c:	48 b8 61 62 6c 65 20 	movabs $0x206f7420656c6261,%rax
  402953:	74 6f 20 
  402956:	48 ba 77 72 69 74 65 	movabs $0x6f74206574697277,%rdx
  40295d:	20 74 6f 
  402960:	48 89 45 10          	mov    %rax,0x10(%rbp)
  402964:	48 89 55 18          	mov    %rdx,0x18(%rbp)
  402968:	48 b8 20 74 68 65 20 	movabs $0x7365722065687420,%rax
  40296f:	72 65 73 
  402972:	48 ba 75 6c 74 20 73 	movabs $0x7672657320746c75,%rdx
  402979:	65 72 76 
  40297c:	48 89 45 20          	mov    %rax,0x20(%rbp)
  402980:	48 89 55 28          	mov    %rdx,0x28(%rbp)
  402984:	66 c7 45 30 65 72    	movw   $0x7265,0x30(%rbp)
  40298a:	c6 45 32 00          	movb   $0x0,0x32(%rbp)
  40298e:	89 df                	mov    %ebx,%edi
  402990:	e8 9b e3 ff ff       	callq  400d30 <close@plt>
  402995:	b8 ff ff ff ff       	mov    $0xffffffff,%eax
  40299a:	e9 f0 00 00 00       	jmpq   402a8f <submitr+0x599>
  40299f:	48 b8 45 72 72 6f 72 	movabs $0x43203a726f727245,%rax
  4029a6:	3a 20 43 
  4029a9:	48 ba 6c 69 65 6e 74 	movabs $0x6e7520746e65696c,%rdx
  4029b0:	20 75 6e 
  4029b3:	48 89 45 00          	mov    %rax,0x0(%rbp)
  4029b7:	48 89 55 08          	mov    %rdx,0x8(%rbp)
  4029bb:	48 b8 61 62 6c 65 20 	movabs $0x206f7420656c6261,%rax
  4029c2:	74 6f 20 
  4029c5:	48 ba 72 65 61 64 20 	movabs $0x7269662064616572,%rdx
  4029cc:	66 69 72 
  4029cf:	48 89 45 10          	mov    %rax,0x10(%rbp)
  4029d3:	48 89 55 18          	mov    %rdx,0x18(%rbp)
  4029d7:	48 b8 73 74 20 68 65 	movabs $0x6564616568207473,%rax
  4029de:	61 64 65 
  4029e1:	48 ba 72 20 66 72 6f 	movabs $0x72206d6f72662072,%rdx
  4029e8:	6d 20 72 
  4029eb:	48 89 45 20          	mov    %rax,0x20(%rbp)
  4029ef:	48 89 55 28          	mov    %rdx,0x28(%rbp)
  4029f3:	48 b8 65 73 75 6c 74 	movabs $0x657320746c757365,%rax
  4029fa:	20 73 65 
  4029fd:	48 89 45 30          	mov    %rax,0x30(%rbp)
  402a01:	c7 45 38 72 76 65 72 	movl   $0x72657672,0x38(%rbp)
  402a08:	c6 45 3c 00          	movb   $0x0,0x3c(%rbp)
  402a0c:	89 df                	mov    %ebx,%edi
  402a0e:	e8 1d e3 ff ff       	callq  400d30 <close@plt>
  402a13:	b8 ff ff ff ff       	mov    $0xffffffff,%eax
  402a18:	eb 75                	jmp    402a8f <submitr+0x599>
  402a1a:	48 b8 45 72 72 6f 72 	movabs $0x43203a726f727245,%rax
  402a21:	3a 20 43 
  402a24:	48 ba 6c 69 65 6e 74 	movabs $0x6e7520746e65696c,%rdx
  402a2b:	20 75 6e 
  402a2e:	48 89 45 00          	mov    %rax,0x0(%rbp)
  402a32:	48 89 55 08          	mov    %rdx,0x8(%rbp)
  402a36:	48 b8 61 62 6c 65 20 	movabs $0x206f7420656c6261,%rax
  402a3d:	74 6f 20 
  402a40:	48 ba 72 65 61 64 20 	movabs $0x6165682064616572,%rdx
  402a47:	68 65 61 
  402a4a:	48 89 45 10          	mov    %rax,0x10(%rbp)
  402a4e:	48 89 55 18          	mov    %rdx,0x18(%rbp)
  402a52:	48 b8 64 65 72 73 20 	movabs $0x6f72662073726564,%rax
  402a59:	66 72 6f 
  402a5c:	48 ba 6d 20 74 68 65 	movabs $0x657220656874206d,%rdx
  402a63:	20 72 65 
  402a66:	48 89 45 20          	mov    %rax,0x20(%rbp)
  402a6a:	48 89 55 28          	mov    %rdx,0x28(%rbp)
  402a6e:	48 b8 73 75 6c 74 20 	movabs $0x72657320746c7573,%rax
  402a75:	73 65 72 
  402a78:	48 89 45 30          	mov    %rax,0x30(%rbp)
  402a7c:	c7 45 38 76 65 72 00 	movl   $0x726576,0x38(%rbp)
  402a83:	89 df                	mov    %ebx,%edi
  402a85:	e8 a6 e2 ff ff       	callq  400d30 <close@plt>
  402a8a:	b8 ff ff ff ff       	mov    $0xffffffff,%eax
  402a8f:	48 8b 9c 24 48 a0 00 	mov    0xa048(%rsp),%rbx
  402a96:	00 
  402a97:	64 48 33 1c 25 28 00 	xor    %fs:0x28,%rbx
  402a9e:	00 00 
  402aa0:	0f 85 f6 01 00 00    	jne    402c9c <submitr+0x7a6>
  402aa6:	48 81 c4 58 a0 00 00 	add    $0xa058,%rsp
  402aad:	5b                   	pop    %rbx
  402aae:	5d                   	pop    %rbp
  402aaf:	41 5c                	pop    %r12
  402ab1:	41 5d                	pop    %r13
  402ab3:	41 5e                	pop    %r14
  402ab5:	41 5f                	pop    %r15
  402ab7:	c3                   	retq   
  402ab8:	85 c0                	test   %eax,%eax
  402aba:	74 4e                	je     402b0a <submitr+0x614>
  402abc:	ba 00 20 00 00       	mov    $0x2000,%edx
  402ac1:	48 8d b4 24 40 20 00 	lea    0x2040(%rsp),%rsi
  402ac8:	00 
  402ac9:	48 8d 7c 24 30       	lea    0x30(%rsp),%rdi
  402ace:	e8 6e f8 ff ff       	callq  402341 <rio_readlineb>
  402ad3:	48 85 c0             	test   %rax,%rax
  402ad6:	0f 8e 3e ff ff ff    	jle    402a1a <submitr+0x524>
  402adc:	0f b6 94 24 40 20 00 	movzbl 0x2040(%rsp),%edx
  402ae3:	00 
  402ae4:	b8 0d 00 00 00       	mov    $0xd,%eax
  402ae9:	29 d0                	sub    %edx,%eax
  402aeb:	75 cb                	jne    402ab8 <submitr+0x5c2>
  402aed:	0f b6 94 24 41 20 00 	movzbl 0x2041(%rsp),%edx
  402af4:	00 
  402af5:	b8 0a 00 00 00       	mov    $0xa,%eax
  402afa:	29 d0                	sub    %edx,%eax
  402afc:	75 ba                	jne    402ab8 <submitr+0x5c2>
  402afe:	0f b6 84 24 42 20 00 	movzbl 0x2042(%rsp),%eax
  402b05:	00 
  402b06:	f7 d8                	neg    %eax
  402b08:	eb ae                	jmp    402ab8 <submitr+0x5c2>
  402b0a:	ba 00 20 00 00       	mov    $0x2000,%edx
  402b0f:	48 8d b4 24 40 20 00 	lea    0x2040(%rsp),%rsi
  402b16:	00 
  402b17:	48 8d 7c 24 30       	lea    0x30(%rsp),%rdi
  402b1c:	e8 20 f8 ff ff       	callq  402341 <rio_readlineb>
  402b21:	48 85 c0             	test   %rax,%rax
  402b24:	7e 67                	jle    402b8d <submitr+0x697>
  402b26:	44 8b 44 24 1c       	mov    0x1c(%rsp),%r8d
  402b2b:	41 81 f8 c8 00 00 00 	cmp    $0xc8,%r8d
  402b32:	0f 85 d9 00 00 00    	jne    402c11 <submitr+0x71b>
  402b38:	48 8d b4 24 40 20 00 	lea    0x2040(%rsp),%rsi
  402b3f:	00 
  402b40:	48 89 ef             	mov    %rbp,%rdi
  402b43:	e8 78 e1 ff ff       	callq  400cc0 <strcpy@plt>
  402b48:	89 df                	mov    %ebx,%edi
  402b4a:	e8 e1 e1 ff ff       	callq  400d30 <close@plt>
  402b4f:	0f b6 45 00          	movzbl 0x0(%rbp),%eax
  402b53:	ba 4f 00 00 00       	mov    $0x4f,%edx
  402b58:	29 c2                	sub    %eax,%edx
  402b5a:	0f 85 e8 00 00 00    	jne    402c48 <submitr+0x752>
  402b60:	0f b6 4d 01          	movzbl 0x1(%rbp),%ecx
  402b64:	b8 4b 00 00 00       	mov    $0x4b,%eax
  402b69:	29 c8                	sub    %ecx,%eax
  402b6b:	0f 85 d9 00 00 00    	jne    402c4a <submitr+0x754>
  402b71:	0f b6 4d 02          	movzbl 0x2(%rbp),%ecx
  402b75:	b8 0a 00 00 00       	mov    $0xa,%eax
  402b7a:	29 c8                	sub    %ecx,%eax
  402b7c:	0f 85 c8 00 00 00    	jne    402c4a <submitr+0x754>
  402b82:	0f b6 45 03          	movzbl 0x3(%rbp),%eax
  402b86:	f7 d8                	neg    %eax
  402b88:	e9 bd 00 00 00       	jmpq   402c4a <submitr+0x754>
  402b8d:	48 b8 45 72 72 6f 72 	movabs $0x43203a726f727245,%rax
  402b94:	3a 20 43 
  402b97:	48 ba 6c 69 65 6e 74 	movabs $0x6e7520746e65696c,%rdx
  402b9e:	20 75 6e 
  402ba1:	48 89 45 00          	mov    %rax,0x0(%rbp)
  402ba5:	48 89 55 08          	mov    %rdx,0x8(%rbp)
  402ba9:	48 b8 61 62 6c 65 20 	movabs $0x206f7420656c6261,%rax
  402bb0:	74 6f 20 
  402bb3:	48 ba 72 65 61 64 20 	movabs $0x6174732064616572,%rdx
  402bba:	73 74 61 
  402bbd:	48 89 45 10          	mov    %rax,0x10(%rbp)
  402bc1:	48 89 55 18          	mov    %rdx,0x18(%rbp)
  402bc5:	48 b8 74 75 73 20 6d 	movabs $0x7373656d20737574,%rax
  402bcc:	65 73 73 
  402bcf:	48 ba 61 67 65 20 66 	movabs $0x6d6f726620656761,%rdx
  402bd6:	72 6f 6d 
  402bd9:	48 89 45 20          	mov    %rax,0x20(%rbp)
  402bdd:	48 89 55 28          	mov    %rdx,0x28(%rbp)
  402be1:	48 b8 20 72 65 73 75 	movabs $0x20746c7573657220,%rax
  402be8:	6c 74 20 
  402beb:	48 89 45 30          	mov    %rax,0x30(%rbp)
  402bef:	c7 45 38 73 65 72 76 	movl   $0x76726573,0x38(%rbp)
  402bf6:	66 c7 45 3c 65 72    	movw   $0x7265,0x3c(%rbp)
  402bfc:	c6 45 3e 00          	movb   $0x0,0x3e(%rbp)
  402c00:	89 df                	mov    %ebx,%edi
  402c02:	e8 29 e1 ff ff       	callq  400d30 <close@plt>
  402c07:	b8 ff ff ff ff       	mov    $0xffffffff,%eax
  402c0c:	e9 7e fe ff ff       	jmpq   402a8f <submitr+0x599>
  402c11:	4c 8d 8c 24 40 80 00 	lea    0x8040(%rsp),%r9
  402c18:	00 
  402c19:	b9 c8 37 40 00       	mov    $0x4037c8,%ecx
  402c1e:	48 c7 c2 ff ff ff ff 	mov    $0xffffffffffffffff,%rdx
  402c25:	be 01 00 00 00       	mov    $0x1,%esi
  402c2a:	48 89 ef             	mov    %rbp,%rdi
  402c2d:	b8 00 00 00 00       	mov    $0x0,%eax
  402c32:	e8 49 e2 ff ff       	callq  400e80 <__sprintf_chk@plt>
  402c37:	89 df                	mov    %ebx,%edi
  402c39:	e8 f2 e0 ff ff       	callq  400d30 <close@plt>
  402c3e:	b8 ff ff ff ff       	mov    $0xffffffff,%eax
  402c43:	e9 47 fe ff ff       	jmpq   402a8f <submitr+0x599>
  402c48:	89 d0                	mov    %edx,%eax
  402c4a:	f7 d8                	neg    %eax
  402c4c:	0f 84 3d fe ff ff    	je     402a8f <submitr+0x599>
  402c52:	bf 10 38 40 00       	mov    $0x403810,%edi
  402c57:	b9 05 00 00 00       	mov    $0x5,%ecx
  402c5c:	48 89 ee             	mov    %rbp,%rsi
  402c5f:	f3 a6                	repz cmpsb %es:(%rdi),%ds:(%rsi)
  402c61:	0f 97 c0             	seta   %al
  402c64:	1c 00                	sbb    $0x0,%al
  402c66:	0f be c0             	movsbl %al,%eax
  402c69:	85 c0                	test   %eax,%eax
  402c6b:	0f 84 1e fe ff ff    	je     402a8f <submitr+0x599>
  402c71:	85 d2                	test   %edx,%edx
  402c73:	75 13                	jne    402c88 <submitr+0x792>
  402c75:	0f b6 45 01          	movzbl 0x1(%rbp),%eax
  402c79:	ba 4b 00 00 00       	mov    $0x4b,%edx
  402c7e:	29 c2                	sub    %eax,%edx
  402c80:	75 06                	jne    402c88 <submitr+0x792>
  402c82:	0f b6 55 02          	movzbl 0x2(%rbp),%edx
  402c86:	f7 da                	neg    %edx
  402c88:	89 d0                	mov    %edx,%eax
  402c8a:	f7 d8                	neg    %eax
  402c8c:	0f 84 fd fd ff ff    	je     402a8f <submitr+0x599>
  402c92:	b8 ff ff ff ff       	mov    $0xffffffff,%eax
  402c97:	e9 f3 fd ff ff       	jmpq   402a8f <submitr+0x599>
  402c9c:	e8 4f e0 ff ff       	callq  400cf0 <__stack_chk_fail@plt>

0000000000402ca1 <init_timeout>:
  402ca1:	85 ff                	test   %edi,%edi
  402ca3:	74 26                	je     402ccb <init_timeout+0x2a>
  402ca5:	53                   	push   %rbx
  402ca6:	89 fb                	mov    %edi,%ebx
  402ca8:	85 ff                	test   %edi,%edi
  402caa:	78 18                	js     402cc4 <init_timeout+0x23>
  402cac:	be 2a 22 40 00       	mov    $0x40222a,%esi
  402cb1:	bf 0e 00 00 00       	mov    $0xe,%edi
  402cb6:	e8 a5 e0 ff ff       	callq  400d60 <signal@plt>
  402cbb:	89 df                	mov    %ebx,%edi
  402cbd:	e8 5e e0 ff ff       	callq  400d20 <alarm@plt>
  402cc2:	5b                   	pop    %rbx
  402cc3:	c3                   	retq   
  402cc4:	bb 00 00 00 00       	mov    $0x0,%ebx
  402cc9:	eb e1                	jmp    402cac <init_timeout+0xb>
  402ccb:	f3 c3                	repz retq 

0000000000402ccd <init_driver>:
  402ccd:	55                   	push   %rbp
  402cce:	53                   	push   %rbx
  402ccf:	48 83 ec 28          	sub    $0x28,%rsp
  402cd3:	48 89 fd             	mov    %rdi,%rbp
  402cd6:	64 48 8b 04 25 28 00 	mov    %fs:0x28,%rax
  402cdd:	00 00 
  402cdf:	48 89 44 24 18       	mov    %rax,0x18(%rsp)
  402ce4:	31 c0                	xor    %eax,%eax
  402ce6:	be 01 00 00 00       	mov    $0x1,%esi
  402ceb:	bf 0d 00 00 00       	mov    $0xd,%edi
  402cf0:	e8 6b e0 ff ff       	callq  400d60 <signal@plt>
  402cf5:	be 01 00 00 00       	mov    $0x1,%esi
  402cfa:	bf 1d 00 00 00       	mov    $0x1d,%edi
  402cff:	e8 5c e0 ff ff       	callq  400d60 <signal@plt>
  402d04:	be 01 00 00 00       	mov    $0x1,%esi
  402d09:	bf 1d 00 00 00       	mov    $0x1d,%edi
  402d0e:	e8 4d e0 ff ff       	callq  400d60 <signal@plt>
  402d13:	ba 00 00 00 00       	mov    $0x0,%edx
  402d18:	be 01 00 00 00       	mov    $0x1,%esi
  402d1d:	bf 02 00 00 00       	mov    $0x2,%edi
  402d22:	e8 69 e1 ff ff       	callq  400e90 <socket@plt>
  402d27:	85 c0                	test   %eax,%eax
  402d29:	0f 88 9c 00 00 00    	js     402dcb <init_driver+0xfe>
  402d2f:	89 c3                	mov    %eax,%ebx
  402d31:	bf 15 38 40 00       	mov    $0x403815,%edi
  402d36:	e8 35 e0 ff ff       	callq  400d70 <gethostbyname@plt>
  402d3b:	48 85 c0             	test   %rax,%rax
  402d3e:	0f 84 d3 00 00 00    	je     402e17 <init_driver+0x14a>
  402d44:	48 c7 44 24 02 00 00 	movq   $0x0,0x2(%rsp)
  402d4b:	00 00 
  402d4d:	c7 44 24 0a 00 00 00 	movl   $0x0,0xa(%rsp)
  402d54:	00 
  402d55:	66 c7 44 24 0e 00 00 	movw   $0x0,0xe(%rsp)
  402d5c:	66 c7 04 24 02 00    	movw   $0x2,(%rsp)
  402d62:	48 63 50 14          	movslq 0x14(%rax),%rdx
  402d66:	48 8b 40 18          	mov    0x18(%rax),%rax
  402d6a:	48 8b 30             	mov    (%rax),%rsi
  402d6d:	48 8d 7c 24 04       	lea    0x4(%rsp),%rdi
  402d72:	b9 0c 00 00 00       	mov    $0xc,%ecx
  402d77:	e8 04 e0 ff ff       	callq  400d80 <__memmove_chk@plt>
  402d7c:	66 c7 44 24 02 3c 9a 	movw   $0x9a3c,0x2(%rsp)
  402d83:	ba 10 00 00 00       	mov    $0x10,%edx
  402d88:	48 89 e6             	mov    %rsp,%rsi
  402d8b:	89 df                	mov    %ebx,%edi
  402d8d:	e8 ce e0 ff ff       	callq  400e60 <connect@plt>
  402d92:	85 c0                	test   %eax,%eax
  402d94:	0f 88 e5 00 00 00    	js     402e7f <init_driver+0x1b2>
  402d9a:	89 df                	mov    %ebx,%edi
  402d9c:	e8 8f df ff ff       	callq  400d30 <close@plt>
  402da1:	66 c7 45 00 4f 4b    	movw   $0x4b4f,0x0(%rbp)
  402da7:	c6 45 02 00          	movb   $0x0,0x2(%rbp)
  402dab:	b8 00 00 00 00       	mov    $0x0,%eax
  402db0:	48 8b 4c 24 18       	mov    0x18(%rsp),%rcx
  402db5:	64 48 33 0c 25 28 00 	xor    %fs:0x28,%rcx
  402dbc:	00 00 
  402dbe:	0f 85 0e 01 00 00    	jne    402ed2 <init_driver+0x205>
  402dc4:	48 83 c4 28          	add    $0x28,%rsp
  402dc8:	5b                   	pop    %rbx
  402dc9:	5d                   	pop    %rbp
  402dca:	c3                   	retq   
  402dcb:	48 b8 45 72 72 6f 72 	movabs $0x43203a726f727245,%rax
  402dd2:	3a 20 43 
  402dd5:	48 ba 6c 69 65 6e 74 	movabs $0x6e7520746e65696c,%rdx
  402ddc:	20 75 6e 
  402ddf:	48 89 45 00          	mov    %rax,0x0(%rbp)
  402de3:	48 89 55 08          	mov    %rdx,0x8(%rbp)
  402de7:	48 b8 61 62 6c 65 20 	movabs $0x206f7420656c6261,%rax
  402dee:	74 6f 20 
  402df1:	48 ba 63 72 65 61 74 	movabs $0x7320657461657263,%rdx
  402df8:	65 20 73 
  402dfb:	48 89 45 10          	mov    %rax,0x10(%rbp)
  402dff:	48 89 55 18          	mov    %rdx,0x18(%rbp)
  402e03:	c7 45 20 6f 63 6b 65 	movl   $0x656b636f,0x20(%rbp)
  402e0a:	66 c7 45 24 74 00    	movw   $0x74,0x24(%rbp)
  402e10:	b8 ff ff ff ff       	mov    $0xffffffff,%eax
  402e15:	eb 99                	jmp    402db0 <init_driver+0xe3>
  402e17:	48 b8 45 72 72 6f 72 	movabs $0x44203a726f727245,%rax
  402e1e:	3a 20 44 
  402e21:	48 ba 4e 53 20 69 73 	movabs $0x6e7520736920534e,%rdx
  402e28:	20 75 6e 
  402e2b:	48 89 45 00          	mov    %rax,0x0(%rbp)
  402e2f:	48 89 55 08          	mov    %rdx,0x8(%rbp)
  402e33:	48 b8 61 62 6c 65 20 	movabs $0x206f7420656c6261,%rax
  402e3a:	74 6f 20 
  402e3d:	48 ba 72 65 73 6f 6c 	movabs $0x2065766c6f736572,%rdx
  402e44:	76 65 20 
  402e47:	48 89 45 10          	mov    %rax,0x10(%rbp)
  402e4b:	48 89 55 18          	mov    %rdx,0x18(%rbp)
  402e4f:	48 b8 73 65 72 76 65 	movabs $0x6120726576726573,%rax
  402e56:	72 20 61 
  402e59:	48 89 45 20          	mov    %rax,0x20(%rbp)
  402e5d:	c7 45 28 64 64 72 65 	movl   $0x65726464,0x28(%rbp)
  402e64:	66 c7 45 2c 73 73    	movw   $0x7373,0x2c(%rbp)
  402e6a:	c6 45 2e 00          	movb   $0x0,0x2e(%rbp)
  402e6e:	89 df                	mov    %ebx,%edi
  402e70:	e8 bb de ff ff       	callq  400d30 <close@plt>
  402e75:	b8 ff ff ff ff       	mov    $0xffffffff,%eax
  402e7a:	e9 31 ff ff ff       	jmpq   402db0 <init_driver+0xe3>
  402e7f:	48 b8 45 72 72 6f 72 	movabs $0x55203a726f727245,%rax
  402e86:	3a 20 55 
  402e89:	48 ba 6e 61 62 6c 65 	movabs $0x6f7420656c62616e,%rdx
  402e90:	20 74 6f 
  402e93:	48 89 45 00          	mov    %rax,0x0(%rbp)
  402e97:	48 89 55 08          	mov    %rdx,0x8(%rbp)
  402e9b:	48 b8 20 63 6f 6e 6e 	movabs $0x7463656e6e6f6320,%rax
  402ea2:	65 63 74 
  402ea5:	48 ba 20 74 6f 20 73 	movabs $0x76726573206f7420,%rdx
  402eac:	65 72 76 
  402eaf:	48 89 45 10          	mov    %rax,0x10(%rbp)
  402eb3:	48 89 55 18          	mov    %rdx,0x18(%rbp)
  402eb7:	66 c7 45 20 65 72    	movw   $0x7265,0x20(%rbp)
  402ebd:	c6 45 22 00          	movb   $0x0,0x22(%rbp)
  402ec1:	89 df                	mov    %ebx,%edi
  402ec3:	e8 68 de ff ff       	callq  400d30 <close@plt>
  402ec8:	b8 ff ff ff ff       	mov    $0xffffffff,%eax
  402ecd:	e9 de fe ff ff       	jmpq   402db0 <init_driver+0xe3>
  402ed2:	e8 19 de ff ff       	callq  400cf0 <__stack_chk_fail@plt>

0000000000402ed7 <driver_post>:
  402ed7:	53                   	push   %rbx
  402ed8:	4c 89 cb             	mov    %r9,%rbx
  402edb:	45 85 c0             	test   %r8d,%r8d
  402ede:	75 18                	jne    402ef8 <driver_post+0x21>
  402ee0:	48 85 ff             	test   %rdi,%rdi
  402ee3:	74 05                	je     402eea <driver_post+0x13>
  402ee5:	80 3f 00             	cmpb   $0x0,(%rdi)
  402ee8:	75 35                	jne    402f1f <driver_post+0x48>
  402eea:	66 c7 03 4f 4b       	movw   $0x4b4f,(%rbx)
  402eef:	c6 43 02 00          	movb   $0x0,0x2(%rbx)
  402ef3:	44 89 c0             	mov    %r8d,%eax
  402ef6:	5b                   	pop    %rbx
  402ef7:	c3                   	retq   
  402ef8:	48 89 ca             	mov    %rcx,%rdx
  402efb:	be 2d 38 40 00       	mov    $0x40382d,%esi
  402f00:	bf 01 00 00 00       	mov    $0x1,%edi
  402f05:	b8 00 00 00 00       	mov    $0x0,%eax
  402f0a:	e8 f1 de ff ff       	callq  400e00 <__printf_chk@plt>
  402f0f:	66 c7 03 4f 4b       	movw   $0x4b4f,(%rbx)
  402f14:	c6 43 02 00          	movb   $0x0,0x2(%rbx)
  402f18:	b8 00 00 00 00       	mov    $0x0,%eax
  402f1d:	eb d7                	jmp    402ef6 <driver_post+0x1f>
  402f1f:	48 83 ec 08          	sub    $0x8,%rsp
  402f23:	41 51                	push   %r9
  402f25:	49 89 c9             	mov    %rcx,%r9
  402f28:	49 89 d0             	mov    %rdx,%r8
  402f2b:	48 89 f9             	mov    %rdi,%rcx
  402f2e:	48 89 f2             	mov    %rsi,%rdx
  402f31:	be 9a 3c 00 00       	mov    $0x3c9a,%esi
  402f36:	bf 15 38 40 00       	mov    $0x403815,%edi
  402f3b:	e8 b6 f5 ff ff       	callq  4024f6 <submitr>
  402f40:	48 83 c4 10          	add    $0x10,%rsp
  402f44:	eb b0                	jmp    402ef6 <driver_post+0x1f>

0000000000402f46 <check>:
  402f46:	89 f8                	mov    %edi,%eax
  402f48:	c1 e8 1c             	shr    $0x1c,%eax
  402f4b:	85 c0                	test   %eax,%eax
  402f4d:	74 1d                	je     402f6c <check+0x26>
  402f4f:	b9 00 00 00 00       	mov    $0x0,%ecx
  402f54:	83 f9 1f             	cmp    $0x1f,%ecx
  402f57:	7f 0d                	jg     402f66 <check+0x20>
  402f59:	89 f8                	mov    %edi,%eax
  402f5b:	d3 e8                	shr    %cl,%eax
  402f5d:	3c 0a                	cmp    $0xa,%al
  402f5f:	74 11                	je     402f72 <check+0x2c>
  402f61:	83 c1 08             	add    $0x8,%ecx
  402f64:	eb ee                	jmp    402f54 <check+0xe>
  402f66:	b8 01 00 00 00       	mov    $0x1,%eax
  402f6b:	c3                   	retq   
  402f6c:	b8 00 00 00 00       	mov    $0x0,%eax
  402f71:	c3                   	retq   
  402f72:	b8 00 00 00 00       	mov    $0x0,%eax
  402f77:	c3                   	retq   

0000000000402f78 <gencookie>:
  402f78:	53                   	push   %rbx
  402f79:	83 c7 01             	add    $0x1,%edi
  402f7c:	e8 1f dd ff ff       	callq  400ca0 <srandom@plt>
  402f81:	e8 3a de ff ff       	callq  400dc0 <random@plt>
  402f86:	89 c3                	mov    %eax,%ebx
  402f88:	89 c7                	mov    %eax,%edi
  402f8a:	e8 b7 ff ff ff       	callq  402f46 <check>
  402f8f:	85 c0                	test   %eax,%eax
  402f91:	74 ee                	je     402f81 <gencookie+0x9>
  402f93:	89 d8                	mov    %ebx,%eax
  402f95:	5b                   	pop    %rbx
  402f96:	c3                   	retq   
  402f97:	66 0f 1f 84 00 00 00 	nopw   0x0(%rax,%rax,1)
  402f9e:	00 00 

0000000000402fa0 <__libc_csu_init>:
  402fa0:	41 57                	push   %r15
  402fa2:	41 56                	push   %r14
  402fa4:	41 89 ff             	mov    %edi,%r15d
  402fa7:	41 55                	push   %r13
  402fa9:	41 54                	push   %r12
  402fab:	4c 8d 25 5e 1e 20 00 	lea    0x201e5e(%rip),%r12        # 604e10 <__frame_dummy_init_array_entry>
  402fb2:	55                   	push   %rbp
  402fb3:	48 8d 2d 5e 1e 20 00 	lea    0x201e5e(%rip),%rbp        # 604e18 <__init_array_end>
  402fba:	53                   	push   %rbx
  402fbb:	49 89 f6             	mov    %rsi,%r14
  402fbe:	49 89 d5             	mov    %rdx,%r13
  402fc1:	4c 29 e5             	sub    %r12,%rbp
  402fc4:	48 83 ec 08          	sub    $0x8,%rsp
  402fc8:	48 c1 fd 03          	sar    $0x3,%rbp
  402fcc:	e8 77 dc ff ff       	callq  400c48 <_init>
  402fd1:	48 85 ed             	test   %rbp,%rbp
  402fd4:	74 20                	je     402ff6 <__libc_csu_init+0x56>
  402fd6:	31 db                	xor    %ebx,%ebx
  402fd8:	0f 1f 84 00 00 00 00 	nopl   0x0(%rax,%rax,1)
  402fdf:	00 
  402fe0:	4c 89 ea             	mov    %r13,%rdx
  402fe3:	4c 89 f6             	mov    %r14,%rsi
  402fe6:	44 89 ff             	mov    %r15d,%edi
  402fe9:	41 ff 14 dc          	callq  *(%r12,%rbx,8)
  402fed:	48 83 c3 01          	add    $0x1,%rbx
  402ff1:	48 39 eb             	cmp    %rbp,%rbx
  402ff4:	75 ea                	jne    402fe0 <__libc_csu_init+0x40>
  402ff6:	48 83 c4 08          	add    $0x8,%rsp
  402ffa:	5b                   	pop    %rbx
  402ffb:	5d                   	pop    %rbp
  402ffc:	41 5c                	pop    %r12
  402ffe:	41 5d                	pop    %r13
  403000:	41 5e                	pop    %r14
  403002:	41 5f                	pop    %r15
  403004:	c3                   	retq   
  403005:	90                   	nop
  403006:	66 2e 0f 1f 84 00 00 	nopw   %cs:0x0(%rax,%rax,1)
  40300d:	00 00 00 

0000000000403010 <__libc_csu_fini>:
  403010:	f3 c3                	repz retq 

Disassembly of section .fini:

0000000000403014 <_fini>:
  403014:	48 83 ec 08          	sub    $0x8,%rsp
  403018:	48 83 c4 08          	add    $0x8,%rsp
  40301c:	c3                   	retq   
